;; This buffer is for notes you don't want to save, and for Lisp evaluation.
;; If you want to create a file, visit that file with C-x C-f,
;; then enter the text in that file's own buffer.

BISYAMON3G-973


# ログ足し (stack dump ツールがまちがってるんじゃね、の確認)

* debug
neuralx は出ない

isUpmixer: 0
dtsOutInfo_.is_direct_mode: 184
true: 1
false: 0
sampleRate: 96000
inChMask: 975
analogGain: 0
bitStream: 9

[offset]:
spkMask: 0x7f60000cbc
chNum: 0x7f60000cc0
bitStrmType: 0x7f60000cc4
strmRate: 0x7f60000cc8
outChInfo: 0x7f60000ccc
in_chmask: 0x7f60000cdc
analog_gain: 0x7f60000ce0
outRate: 0x7f60000ce4
is_objectAudio: 0x7f60000ce8
ChannelConfig: 0x7f60000cec
is_direct_mode: 0x7f60000cf0

spkMask:0a000000
chNum:01000000
bitStrmType:00000000
strmRate:3fa00000
outChInfo:08000000090000000077010008020307
in_chmask:08050601
analog_gain:04000000
outRate:00000000
is_objectAudio:cf030000
ChannelConfig:00000000
is_direct_mode:00770100


* release
neuralx が出る

isUpmixer: 153
dtsOutInfo_.is_direct_mode: 152
true: 1
false: 0
sampleRate: 96000
inChMask: 975
analogGain: 0
bitStream: 9

10-22 14:58:02.246 (hagodaemon)( 4506): [E| 4506|7f84c99130|SPDIF|SpdifPlayerServiceDtsDecHandler.cc:461|hgrm::spdif::Result hgrm::spdif::SpdifPlayerServiceDtsDecHandler::doDtsProcess(hgrm::spdif::ParserInfo*, uint8_t*, uint32_t, uint8_t*)] Error! *** [offset]: spkMask: 0x7f6c000cbc chNum: 0x7f6c000cc0 bitStrmType: 0x7f6c000cc4 strmRate: 0x7f6c000cc8 outChInfo: 0x7f6c000ccc in_chmask: 0x7f6c000cdc analog_gain: 0x7f6c000ce0 outRate: 0x7f6c000ce4 is_objectAudio: 0x7f6c000ce8 ChannelConfig: 0x7f6c000cec is_direct_mode: 0x7f6c000cf0 ***
10-22 14:58:02.246 (hagodaemon)( 4506): [E| 4506|7f84c99130|SPDIF|SpdifPlayerServiceDtsDecHandler.cc:474|hgrm::spdif::Result hgrm::spdif::SpdifPlayerServiceDtsDecHandler::doDtsProcess(hgrm::spdif::ParserInfo*, uint8_t*, uint32_t, uint8_t*)] Error! spkMask:0a000000 chNum:01000000 bitStrmType:00000000 strmRate:3fa00000
10-22 14:58:02.246 (hagodaemon)( 4506): [E| 4506|7f84c99130|SPDIF|SpdifPlayerServiceDtsDecHandler.cc:475|hgrm::spdif::Result hgrm::spdif::SpdifPlayerServiceDtsDecHandler::doDtsProcess(hgrm::spdif::ParserInfo*, uint8_t*, uint32_t, uint8_t*)] Error! outChInfo:08000000090000000077010008020307
10-22 14:58:02.246 (hagodaemon)( 4506): [E| 4506|7f84c99130|SPDIF|SpdifPlayerServiceDtsDecHandler.cc:476|hgrm::spdif::Result hgrm::spdif::SpdifPlayerServiceDtsDecHandler::doDtsProcess(hgrm::spdif::ParserInfo*, uint8_t*, uint32_t, uint8_t*)] Error! in_chmask:08050601 analog_gain:04000000 outRate:00000000 is_objectAudio:cf030000 
10-22 14:58:02.246 (hagodaemon)( 4506): [E| 4506|7f84c99130|SPDIF|SpdifPlayerServiceDtsDecHandler.cc:478|hgrm::spdif::Result hgrm::spdif::SpdifPlayerServiceDtsDecHandler::doDtsProcess(hgrm::spdif::ParserInfo*, uint8_t*, uint32_t, uint8_t*)] Error! ChannelConfig:00000000 is_direct_mode:00770100




-----

# 三項演算をそのままで isUpmixer をmember val にしたもの

* debug
(neural x はでない.)

10-22 14:56:39.446 (hagodaemon)( 4413): [E| 4413|7f8ffff130|SPDIF|SpdifPlayerServiceDtsDecHandler.cc:459|hgrm::spdif::Result hgrm::spdif::SpdifPlayerServiceDtsDecHandler::doDtsProcess(hgrm::spdif::ParserInfo*, uint8_t*, uint32_t, uint8_t*)] Error! *** [spdifdebug] isUpmixer: 0 dtsOutInfo_.is_direct_mode: 184 true: 1 false: 0 ***
10-22 14:56:39.446 (hagodaemon)( 4413): [E| 4413|7f8ffff130|SPDIF|SpdifPlayerServiceDtsDecHandler.cc:461|hgrm::spdif::Result hgrm::spdif::SpdifPlayerServiceDtsDecHandler::doDtsProcess(hgrm::spdif::ParserInfo*, uint8_t*, uint32_t, uint8_t*)] Error! *** [offset]: spkMask: 0x7f80000cbc chNum: 0x7f80000cc0 bitStrmType: 0x7f80000cc4 strmRate: 0x7f80000cc8 outChInfo: 0x7f80000ccc in_chmask: 0x7f80000cdc analog_gain: 0x7f80000ce0 outRate: 0x7f80000ce4 is_objectAudio: 0x7f80000ce8 ChannelConfig: 0x7f80000cec is_direct_mode: 0x7f80000cf0 ***
10-22 14:56:39.446 (hagodaemon)( 4413): [E| 4413|7f8ffff130|SPDIF|SpdifPlayerServiceDtsDecHandler.cc:474|hgrm::spdif::Result hgrm::spdif::SpdifPlayerServiceDtsDecHandler::doDtsProcess(hgrm::spdif::ParserInfo*, uint8_t*, uint32_t, uint8_t*)] Error! spkMask:0a000000 chNum:01000000 bitStrmType:00000000 strmRate:3fa00000
10-22 14:56:39.446 (hagodaemon)( 4413): [E| 4413|7f8ffff130|SPDIF|SpdifPlayerServiceDtsDecHandler.cc:475|hgrm::spdif::Result hgrm::spdif::SpdifPlayerServiceDtsDecHandler::doDtsProcess(hgrm::spdif::ParserInfo*, uint8_t*, uint32_t, uint8_t*)] Error! outChInfo:08000000090000000077010008020307
10-22 14:56:39.446 (hagodaemon)( 4413): [E| 4413|7f8ffff130|SPDIF|SpdifPlayerServiceDtsDecHandler.cc:476|hgrm::spdif::Result hgrm::spdif::SpdifPlayerServiceDtsDecHandler::doDtsProcess(hgrm::spdif::ParserInfo*, uint8_t*, uint32_t, uint8_t*)] Error! in_chmask:08050601 analog_gain:04000000 outRate:00000000 is_objectAudio:cf030000 
10-22 14:56:39.446 (hagodaemon)( 4413): [E| 4413|7f8ffff130|SPDIF|SpdifPlayerServiceDtsDecHandler.cc:478|hgrm::spdif::Result hgrm::spdif::SpdifPlayerServiceDtsDecHandler::doDtsProcess(hgrm::spdif::ParserInfo*, uint8_t*, uint32_t, uint8_t*)] Error! ChannelConfig:00000000 is_direct_mode:00770100

* release
(neural x はでる)

10-22 15:02:38.550 (hagodaemon)( 4401): [E| 4401|7f9ffff130|SPDIF|SpdifPlayerServiceDtsDecHandler.cc:459|hgrm::spdif::Result hgrm::spdif::SpdifPlayerServiceDtsDecHandler::doDtsProcess(hgrm::spdif::ParserInfo*, uint8_t*, uint32_t, uint8_t*)] Error! *** [spdifdebug] isUpmixer: 153 dtsOutInfo_.is_direct_mode: 152 true: 1 false: 0 ***
10-22 15:02:38.550 (hagodaemon)( 4401): [E| 4401|7f9ffff130|SPDIF|SpdifPlayerServiceDtsDecHandler.cc:461|hgrm::spdif::Result hgrm::spdif::SpdifPlayerServiceDtsDecHandler::doDtsProcess(hgrm::spdif::ParserInfo*, uint8_t*, uint32_t, uint8_t*)] Error! *** [offset]: spkMask: 0x7f8c000cbc chNum: 0x7f8c000cc0 bitStrmType: 0x7f8c000cc4 strmRate: 0x7f8c000cc8 outChInfo: 0x7f8c000ccc in_chmask: 0x7f8c000cdc analog_gain: 0x7f8c000ce0 outRate: 0x7f8c000ce4 is_objectAudio: 0x7f8c000ce8 ChannelConfig: 0x7f8c000cec is_direct_mode: 0x7f8c000cf0 ***
10-22 15:02:38.550 (hagodaemon)( 4401): [E| 4401|7f9ffff130|SPDIF|SpdifPlayerServiceDtsDecHandler.cc:474|hgrm::spdif::Result hgrm::spdif::SpdifPlayerServiceDtsDecHandler::doDtsProcess(hgrm::spdif::ParserInfo*, uint8_t*, uint32_t, uint8_t*)] Error! spkMask:0a000000 chNum:01000000 bitStrmType:00000000 strmRate:3fa00000
10-22 15:02:38.551 (hagodaemon)( 4401): [E| 4401|7f9ffff130|SPDIF|SpdifPlayerServiceDtsDecHandler.cc:475|hgrm::spdif::Result hgrm::spdif::SpdifPlayerServiceDtsDecHandler::doDtsProcess(hgrm::spdif::ParserInfo*, uint8_t*, uint32_t, uint8_t*)] Error! outChInfo:08000000090000000077010008020307
10-22 15:02:38.551 (hagodaemon)( 4401): [E| 4401|7f9ffff130|SPDIF|SpdifPlayerServiceDtsDecHandler.cc:476|hgrm::spdif::Result hgrm::spdif::SpdifPlayerServiceDtsDecHandler::doDtsProcess(hgrm::spdif::ParserInfo*, uint8_t*, uint32_t, uint8_t*)] Error! in_chmask:08050601 analog_gain:04000000 outRate:00000000 is_objectAudio:cf030000 
10-22 15:02:38.551 (hagodaemon)( 4401): [E| 4401|7f9ffff130|SPDIF|SpdifPlayerServiceDtsDecHandler.cc:478|hgrm::spdif::Result hgrm::spdif::SpdifPlayerServiceDtsDecHandler::doDtsProcess(hgrm::spdif::ParserInfo*, uint8_t*, uint32_t, uint8_t*)] Error! ChannelConfig:00000000 is_direct_mode:00770100


------


#昨日の isUpmixer の条件がひっくりかえっているのを修正したつもりの版


    //bool isUpmixer          = dtsOutInfo_.is_direct_mode == false ?
    //                                true : false;
    //int32_t isUpmixer = false;
        if (false == dtsOutInfo_.is_direct_mode) {
          isUpmixer_ = true;
        }
        else {
          isUpmixer_ = false;
        }


* debug
(何故か neuralx の表示がでる)

10-22 14:57:22.539 (hagodaemon)( 4553): [E| 4553|7f9e42b130|SPDIF|SpdifPlayerServiceDtsDecHandler.cc:457|hgrm::spdif::Result hgrm::spdif::SpdifPlayerServiceDtsDecHandler::doDtsProcess(hgrm::spdif::ParserInfo*, uint8_t*, uint32_t, uint8_t*)] Error! *** [spdifdebug] isUpmixer: 1 dtsOutInfo_.is_direct_mode: 184 true: 1 false: 0 ***
10-22 14:57:22.539 (hagodaemon)( 4553): [E| 4553|7f9e42b130|SPDIF|SpdifPlayerServiceDtsDecHandler.cc:459|hgrm::spdif::Result hgrm::spdif::SpdifPlayerServiceDtsDecHandler::doDtsProcess(hgrm::spdif::ParserInfo*, uint8_t*, uint32_t, uint8_t*)] Error! *** [offset]: spkMask: 0x7f8c000cbc chNum: 0x7f8c000cc0 bitStrmType: 0x7f8c000cc4 strmRate: 0x7f8c000cc8 outChInfo: 0x7f8c000ccc in_chmask: 0x7f8c000cdc analog_gain: 0x7f8c000ce0 outRate: 0x7f8c000ce4 is_objectAudio: 0x7f8c000ce8 ChannelConfig: 0x7f8c000cec is_direct_mode: 0x7f8c000cf0 ***
10-22 14:57:22.539 (hagodaemon)( 4553): [E| 4553|7f9e42b130|SPDIF|SpdifPlayerServiceDtsDecHandler.cc:472|hgrm::spdif::Result hgrm::spdif::SpdifPlayerServiceDtsDecHandler::doDtsProcess(hgrm::spdif::ParserInfo*, uint8_t*, uint32_t, uint8_t*)] Error! spkMask:0a000000 chNum:01000000 bitStrmType:00000000 strmRate:3fa00000
10-22 14:57:22.539 (hagodaemon)( 4553): [E| 4553|7f9e42b130|SPDIF|SpdifPlayerServiceDtsDecHandler.cc:473|hgrm::spdif::Result hgrm::spdif::SpdifPlayerServiceDtsDecHandler::doDtsProcess(hgrm::spdif::ParserInfo*, uint8_t*, uint32_t, uint8_t*)] Error! outChInfo:08000000090000000077010008020307
10-22 14:57:22.539 (hagodaemon)( 4553): [E| 4553|7f9e42b130|SPDIF|SpdifPlayerServiceDtsDecHandler.cc:474|hgrm::spdif::Result hgrm::spdif::SpdifPlayerServiceDtsDecHandler::doDtsProcess(hgrm::spdif::ParserInfo*, uint8_t*, uint32_t, uint8_t*)] Error! in_chmask:08050601 analog_gain:04000000 outRate:00000000 is_objectAudio:cf030000 
10-22 14:57:22.540 (hagodaemon)( 4553): [E| 4553|7f9e42b130|SPDIF|SpdifPlayerServiceDtsDecHandler.cc:476|hgrm::spdif::Result hgrm::spdif::SpdifPlayerServiceDtsDecHandler::doDtsProcess(hgrm::spdif::ParserInfo*, uint8_t*, uint32_t, uint8_t*)] Error! ChannelConfig:00000000 is_direct_mode:00770100



* release
(何故か neuralx が出ない)

10-22 14:57:27.066 (hagodaemon)( 4366): [E| 4366|7f91429130|SPDIF|SpdifPlayerServiceDtsDecHandler.cc:457|hgrm::spdif::Result hgrm::spdif::SpdifPlayerServiceDtsDecHandler::doDtsProcess(hgrm::spdif::ParserInfo*, uint8_t*, uint32_t, uint8_t*)] Error! *** [spdifdebug] isUpmixer: 0 dtsOutInfo_.is_direct_mode: 152 true: 1 false: 0 ***
10-22 14:57:27.066 (hagodaemon)( 4366): [E| 4366|7f91429130|SPDIF|SpdifPlayerServiceDtsDecHandler.cc:459|hgrm::spdif::Result hgrm::spdif::SpdifPlayerServiceDtsDecHandler::doDtsProcess(hgrm::spdif::ParserInfo*, uint8_t*, uint32_t, uint8_t*)] Error! *** [offset]: spkMask: 0x7f7c000cbc chNum: 0x7f7c000cc0 bitStrmType: 0x7f7c000cc4 strmRate: 0x7f7c000cc8 outChInfo: 0x7f7c000ccc in_chmask: 0x7f7c000cdc analog_gain: 0x7f7c000ce0 outRate: 0x7f7c000ce4 is_objectAudio: 0x7f7c000ce8 ChannelConfig: 0x7f7c000cec is_direct_mode: 0x7f7c000cf0 ***
10-22 14:57:27.066 (hagodaemon)( 4366): [E| 4366|7f91429130|SPDIF|SpdifPlayerServiceDtsDecHandler.cc:472|hgrm::spdif::Result hgrm::spdif::SpdifPlayerServiceDtsDecHandler::doDtsProcess(hgrm::spdif::ParserInfo*, uint8_t*, uint32_t, uint8_t*)] Error! spkMask:0a000000 chNum:01000000 bitStrmType:00000000 strmRate:3fa00000
10-22 14:57:27.066 (hagodaemon)( 4366): [E| 4366|7f91429130|SPDIF|SpdifPlayerServiceDtsDecHandler.cc:473|hgrm::spdif::Result hgrm::spdif::SpdifPlayerServiceDtsDecHandler::doDtsProcess(hgrm::spdif::ParserInfo*, uint8_t*, uint32_t, uint8_t*)] Error! outChInfo:08000000090000000077010008020307
10-22 14:57:27.066 (hagodaemon)( 4366): [E| 4366|7f91429130|SPDIF|SpdifPlayerServiceDtsDecHandler.cc:474|hgrm::spdif::Result hgrm::spdif::SpdifPlayerServiceDtsDecHandler::doDtsProcess(hgrm::spdif::ParserInfo*, uint8_t*, uint32_t, uint8_t*)] Error! in_chmask:08050601 analog_gain:04000000 outRate:00000000 is_objectAudio:cf030000 
10-22 14:57:27.066 (hagodaemon)( 4366): [E| 4366|7f91429130|SPDIF|SpdifPlayerServiceDtsDecHandler.cc:476|hgrm::spdif::Result hgrm::spdif::SpdifPlayerServiceDtsDecHandler::doDtsProcess(hgrm::spdif::ParserInfo*, uint8_t*, uint32_t, uint8_t*)] Error! ChannelConfig:00000000 is_direct_mode:00770100



--

# 昨日の isUpmixer を member にしたものが true/false の判定を間違っていたので直した

* debug
(が何故か neural X がでる)


10-22 14:58:14.266 (hagodaemon)( 4615): [E| 4615|7f977fe130|SPDIF|SpdifPlayerServiceDtsDecHandler.cc:457|hgrm::spdif::Result hgrm::spdif::SpdifPlayerServiceDtsDecHandler::doDtsProcess(hgrm::spdif::ParserInfo*, uint8_t*, uint32_t, uint8_t*)] Error! *** [spdifdebug] isUpmixer: 1 dtsOutInfo_.is_direct_mode: 184 true: 1 false: 0 ***

10-22 14:58:14.267 (hagodaemon)( 4615): [E| 4615|7f977fe130|SPDIF|SpdifPlayerServiceDtsDecHandler.cc:459|hgrm::spdif::Result hgrm::spdif::SpdifPlayerServiceDtsDecHandler::doDtsProcess(hgrm::spdif::ParserInfo*, uint8_t*, uint32_t, uint8_t*)] Error! *** [offset]: spkMask: 0x7f80000cbc chNum: 0x7f80000cc0 bitStrmType: 0x7f80000cc4 strmRate: 0x7f80000cc8 outChInfo: 0x7f80000ccc in_chmask: 0x7f80000cdc analog_gain: 0x7f80000ce0 outRate: 0x7f80000ce4 is_objectAudio: 0x7f80000ce8 ChannelConfig: 0x7f80000cec is_direct_mode: 0x7f80000cf0 ***
10-22 14:58:14.267 (hagodaemon)( 4615): [E| 4615|7f977fe130|SPDIF|SpdifPlayerServiceDtsDecHandler.cc:472|hgrm::spdif::Result hgrm::spdif::SpdifPlayerServiceDtsDecHandler::doDtsProcess(hgrm::spdif::ParserInfo*, uint8_t*, uint32_t, uint8_t*)] Error! spkMask:0a000000 chNum:01000000 bitStrmType:00000000 strmRate:3fa00000
10-22 14:58:14.267 (hagodaemon)( 4615): [E| 4615|7f977fe130|SPDIF|SpdifPlayerServiceDtsDecHandler.cc:473|hgrm::spdif::Result hgrm::spdif::SpdifPlayerServiceDtsDecHandler::doDtsProcess(hgrm::spdif::ParserInfo*, uint8_t*, uint32_t, uint8_t*)] Error! outChInfo:08000000090000000077010008020307
10-22 14:58:14.267 (hagodaemon)( 4615): [E| 4615|7f977fe130|SPDIF|SpdifPlayerServiceDtsDecHandler.cc:474|hgrm::spdif::Result hgrm::spdif::SpdifPlayerServiceDtsDecHandler::doDtsProcess(hgrm::spdif::ParserInfo*, uint8_t*, uint32_t, uint8_t*)] Error! in_chmask:08050601 analog_gain:04000000 outRate:00000000 is_objectAudio:cf030000 
10-22 14:58:14.267 (hagodaemon)( 4615): [E| 4615|7f977fe130|SPDIF|SpdifPlayerServiceDtsDecHandler.cc:476|hgrm::spdif::Result hgrm::spdif::SpdifPlayerServiceDtsDecHandler::doDtsProcess(hgrm::spdif::ParserInfo*, uint8_t*, uint32_t, uint8_t*)] Error! ChannelConfig:00000000 is_direct_mode:00770100



--

# isUpmixer を元にもどした

* debug
(neural X は出ない)


10-22 14:58:31.917 (hagodaemon)( 4389): [E| 4389|7f8e42b130|SPDIF|SpdifPlayerServiceDtsDecHandler.cc:457|hgrm::spdif::Result hgrm::spdif::SpdifPlayerServiceDtsDecHandler::doDtsProcess(hgrm::spdif::ParserInfo*, uint8_t*, uint32_t, uint8_t*)] Error! *** [spdifdebug] isUpmixer: 0 dtsOutInfo_.is_direct_mode: 184 true: 1 false: 0 ***

spkMask: 0x7f7c000cbc
chNum: 0x7f7c000cc0
bitStrmType: 0x7f7c000cc4
strmRate: 0x7f7c000cc8
outChInfo: 0x7f7c000ccc
in_chmask: 0x7f7c000cdc
analog_gain: 0x7f7c000ce0
outRate: 0x7f7c000ce4
is_objectAudio: 0x7f7c000ce8
ChannelConfig: 0x7f7c000cec
is_direct_mode: 0x7f7c000cf0


spkMask:0a000000
chNum:01000000
bitStrmType:00000000
strmRate:3fa00000
outChInfo:08000000090000000077010008020307
in_chmask:08050601
analog_gain:04000000
outRate:00000000
is_objectAudio:cf030000
ChannelConfig:00000000
is_direct_mode:00770100


* release
(neural x でる)

10-22 15:02:26.060 (hagodaemon)( 4467): [E| 4467|7fae7fc130|SPDIF|SpdifPlayerServiceDtsDecHandler.cc:457|hgrm::spdif::Result hgrm::spdif::SpdifPlayerServiceDtsDecHandler::doDtsProcess(hgrm::spdif::ParserInfo*, uint8_t*, uint32_t, uint8_t*)] Error! *** [spdifdebug] isUpmixer: 153 dtsOutInfo_.is_direct_mode: 152 true: 1 false: 0 ***

spkMask: 0x7f9c000cbc
chNum: 0x7f9c000cc0
bitStrmType: 0x7f9c000cc4
strmRate: 0x7f9c000cc8
outChInfo: 0x7f9c000ccc
in_chmask: 0x7f9c000cdc
analog_gain: 0x7f9c000ce0
outRate: 0x7f9c000ce4
is_objectAudio: 0x7f9c000ce8
ChannelConfig: 0x7f9c000cec
is_direct_mode: 0x7f9c000cf0


spkMask:0a000000
chNum:01000000
bitStrmType:00000000
strmRate:3fa00000
outChInfo:08000000090000000077010008020307
in_chmask:08050601
analog_gain:04000000
outRate:00000000
is_objectAudio:cf030000
ChannelConfig:00000000
is_direct_mode:00770100





---

# isUpMixer を member に移したりした

* debug

(ちなみに neural x 表示はでる)

10-22 15:54:38.535 (hagodaemon)( 4305): [E| 4305|7f80c28130|SPDIF|SpdifPlayerServiceDtsDecHandler.cc:457|hgrm::spdif::Result hgrm::spdif::SpdifPlayerServiceDtsDecHandler::doDtsProcess(hgrm::spdif::ParserInfo*, uint8_t*, uint32_t, uint8_t*)] Error! *** [spdifdebug] isUpmixer: 1 dtsOutInfo_.is_direct_mode: 184 true: 1 false: 0 ***
spkMask: 0x7f6c000cbc
chNum: 0x7f6c000cc0
bitStrmType: 0x7f6c000cc4
strmRate: 0x7f6c000cc8
outChInfo: 0x7f6c000ccc
in_chmask: 0x7f6c000cdc
analog_gain: 0x7f6c000ce0
outRate: 0x7f6c000ce4
is_objectAudio: 0x7f6c000ce8
ChannelConfig: 0x7f6c000cec
is_direct_mode: 0x7f6c000cf0

spkMask:0a000000
chNum:01000000
bitStrmType:00000000
strmRate:3fa00000
outChInfo:08000000090000000077010008020307
in_chmask:08050601
analog_gain:04000000
outRate:00000000
is_objectAudio:cf030000
ChannelConfig:00000000
is_direct_mode:00770100


* release
(neural x 表示でる)

10-22 14:58:34.009 (hagodaemon)( 4436): [E| 4436|7f84898130|SPDIF|SpdifPlayerServiceDtsDecHandler.cc:457|hgrm::spdif::Result hgrm::spdif::SpdifPlayerServiceDtsDecHandler::doDtsProcess(hgrm::spdif::ParserInfo*, uint8_t*, uint32_t, uint8_t*)] Error! *** [spdifdebug] isUpmixer: 1 dtsOutInfo_.is_direct_mode: 152 true: 1 false: 0 ***
spkMask: 0x7f6c000cbc
chNum: 0x7f6c000cc0
bitStrmType: 0x7f6c000cc4
strmRate: 0x7f6c000cc8
outChInfo: 0x7f6c000ccc
in_chmask: 0x7f6c000cdc
analog_gain: 0x7f6c000ce0
outRate: 0x7f6c000ce4
is_objectAudio: 0x7f6c000ce8
ChannelConfig: 0x7f6c000cec
is_direct_mode: 0x7f6c000cf0

spkMask:0a000000
chNum:01000000
bitStrmType:00000000
strmRate:3fa00000
outChInfo:08000000090000000077010008020307
in_chmask:08050601
analog_gain:04000000
outRate:00000000
is_objectAudio:cf030000
ChannelConfig:00000000
is_direct_mode:00770100







----

* debug
addr

10-22 14:57:48.869 (hagodaemon)( 4351): [E| 4351|7fb1c2a130|SPDIF|SpdifPlayerServiceDtsDecHandler.cc:456|hgrm::spdif::Result hgrm::spdif::SpdifPlayerServiceDtsDecHandler::doDtsProcess(hgrm::spdif::ParserInfo*, uint8_t*, uint32_t, uint8_t*)] Error! *** [spdifdebug] isUpmixer: 1 dtsOutInfo_.is_direct_mode: 184 true: 1 false: 0 ***
10-22 14:57:48.869 (hagodaemon)( 4351): [E| 4351|7fb1c2a130|SPDIF|SpdifPlayerServiceDtsDecHandler.cc:458|hgrm::spdif::Result hgrm::spdif::SpdifPlayerServiceDtsDecHandler::doDtsProcess(hgrm::spdif::ParserInfo*, uint8_t*, uint32_t, uint8_t*)] Error! *** [offset]: spkMask: 0x7fa0000cbc chNum: 0x7fa0000cc0 bitStrmType: 0x7fa0000cc4 strmRate: 0x7fa0000cc8 outChInfo: 0x7fa0000ccc in_chmask: 0x7fa0000cdc analog_gain: 0x7fa0000ce0 outRate: 0x7fa0000ce4 is_objectAudio: 0x7fa0000ce8 ChannelConfig: 0x7fa0000cec is_direct_mode: 0x7fa0000cf0 ***

spkMask:         0x7fa0000cbc
chNum:           0x7fa0000cc0
bitStrmType:     0x7fa0000cc4
strmRate:        0x7fa0000cc8
outChInfo:       0x7fa0000ccc
in_chmask:       0x7fa0000cdc
analog_gain:     0x7fa0000ce0
outRate:         0x7fa0000ce4
is_objectAudio:  0x7fa0000ce8
ChannelConfig:   0x7fa0000cec
is_direct_mode:  0x7fa0000cf0


* rel
addr

10-22 14:57:11.815 (hagodaemon)( 4362): [E| 4362|7f80b28130|SPDIF|SpdifPlayerServiceDtsDecHandler.cc:456|hgrm::spdif::Result hgrm::spdif::SpdifPlayerServiceDtsDecHandler::doDtsProcess(hgrm::spdif::ParserInfo*, uint8_t*, uint32_t, uint8_t*)] Error! *** [spdifdebug] isUpmixer: 1 dtsOutInfo_.is_direct_mode: 152 true: 1 false: 0 ***
10-22 14:57:11.815 (hagodaemon)( 4362): [E| 4362|7f80b28130|SPDIF|SpdifPlayerServiceDtsDecHandler.cc:458|hgrm::spdif::Result hgrm::spdif::SpdifPlayerServiceDtsDecHandler::doDtsProcess(hgrm::spdif::ParserInfo*, uint8_t*, uint32_t, uint8_t*)] Error! *** [offset]: spkMask: 0x7f60000cbc chNum: 0x7f60000cc0 bitStrmType: 0x7f60000cc4 strmRate: 0x7f60000cc8 outChInfo: 0x7f60000ccc in_chmask: 0x7f60000cdc analog_gain: 0x7f60000ce0 outRate: 0x7f60000ce4 is_objectAudio: 0x7f60000ce8 ChannelConfig: 0x7f60000cec is_direct_mode: 0x7f60000cf0 ***


spkMask:          0x7f60000cbc
chNum:            0x7f60000cc0
bitStrmType:      0x7f60000cc4
strmRate:         0x7f60000cc8
outChInfo:        0x7f60000ccc
in_chmask:        0x7f60000cdc
analog_gain:      0x7f60000ce0
outRate:          0x7f60000ce4
is_objectAudio:   0x7f60000ce8
ChannelConfig:    0x7f60000cec
is_direct_mode:   0x7f60000cf0





* configv3 以下 toolchain/common/linux-gcc-release.mk を -O2 -> -O0 とすると
現象自体は出なくなる.
このため, 本現象がコンパイラの optimizer によるものではないかと推測される.
(だた, そもそも debug 版の log の出方もおかしいと思うので...)

* debug/release 共わざと %d で bool を出しているが, 期待値 0/1 に対して
あきらかに変な値をもどす.
ただ, 奇妙なことに, debug は, かならず, isUpmixer に三項演算で代入すると
"0" をもどすが, release ver は, もとの値 + 1 をもどしているのではないか
と思われる挙動になっている.
(基本 debug/release 共, dtsOutInfo_is_direct_mode は ver 毎に同じ値で
だしつづけているようだが, build を繰替えしたりしていると release では値が変わることが
あるが, この結果は共通している)
(元のコードが true/false をひっくりかえしているので optimize でそうなる可能性があるかと)

* disassemble
** release



0000000000065e40 <_ZN4hgrm5spdif31SpdifPlayerServiceDtsDecHandler12doDtsProcessEPNS0_10ParserInfoEPhjS4_>:
   65e40:       d103c3ff        sub     sp, sp, #0xf0
   65e44:       a9047bfd        stp     x29, x30, [sp, #64]
   65e48:       910103fd        add     x29, sp, #0x40
   65e4c:       f9002bf3        str     x19, [sp, #80]
   65e50:       f00004f3        adrp    x19, 104000 <_ZNK4hgrm5spdif22SpdifPlayerAudioBuffer7GetKindEv@@Base+0x952c8>
   65e54:       f90037f6        str     x22, [sp, #104]
   65e58:       aa0103f6        mov     x22, x1
   65e5c:       f946b261        ldr     x1, [x19, #3424]
   65e60:       f90043f9        str     x25, [sp, #128]
   65e64:       aa0203f9        mov     x25, x2
   65e68:       f9400022        ldr     x2, [x1]
   65e6c:       f90057a2        str     x2, [x29, #168]
   65e70:       d2800002        mov     x2, #0x0                        // #0
   65e74:       b4002424        cbz     x4, 662f8 <_ZN4hgrm5spdif31SpdifPlayerServiceDtsDecHandler12doDtsProcessEPNS0_10ParserInfoEPhjS4_+0x4b8>                                                        ## if (pOutBuffer == nullptr) {


   65e78:       a901d7b4        stp     x20, x21, [x29, #24]
   65e7c:       f00004f5        adrp    x21, 104000 <_ZNK4hgrm5spdif22SpdifPlayerAudioBuffer7GetKindEv@@Base+0x952c8>

  libSpdifPlayerService.so でこうなっているので, 104000 hal ro data
  [19] .data.rel.ro      PROGBITS         0000000000103468  000f3468
       0000000000001550  0000000000000000  WA       0     0     8



   65e80:       a90363b7        stp     x23, x24, [x29, #48]
   65e84:       91032014        add     x20, x0, #0xc8
   65e88:       f94696a1        ldr     x1, [x21, #3368]
   65e8c:       2a0303f8        mov     w24, w3
   65e90:       a904efba        stp     x26, x27, [x29, #72]
   65e94:       9100a2d7        add     x23, x22, #0x28
   65e98:       f9002fbc        str     x28, [x29, #88]
   65e9c:       aa0003fa        mov     x26, x0
   65ea0:       b900a7bf        str     wzr, [x29, #164]
   65ea4:       aa0403fc        mov     x28, x4
   65ea8:       b4000541        cbz     x1, 65f50 <_ZN4hgrm5spdif31SpdifPlayerServiceDtsDecHandler12doDtsProcessEPNS0_10ParserInfoEPhjS4_+0x110>
   65eac:       aa1403e0        mov     x0, x20
   65eb0:       97ff0620        bl      27730 <pthread_mutex_lock@plt>
   65eb4:       35003d80        cbnz    w0, 66664 <_ZN4hgrm5spdif31SpdifPlayerServiceDtsDecHandler12doDtsProcessEPNS0_10ParserInfoEPhjS4_+0x824>
   65eb8:       b940c35b        ldr     w27, [x26, #192]
   65ebc:       aa1403e0        mov     x0, x20
   65ec0:       97ff0854        bl      28010 <pthread_mutex_unlock@plt>
   65ec4:       71000f7f        cmp     w27, #0x3
   65ec8:       54000740        b.eq    65fb0 <_ZN4hgrm5spdif31SpdifPlayerServiceDtsDecHandler12doDtsProcessEPNS0_10ParserInfoEPhjS4_+0x170>  // b.none
   65ecc:       7100177f        cmp     w27, #0x5
   65ed0:       54000700        b.eq    65fb0 <_ZN4hgrm5spdif31SpdifPlayerServiceDtsDecHandler12doDtsProcessEPNS0_10ParserInfoEPhjS4_+0x170>  // b.none
   65ed4:       7100077f        cmp     w27, #0x1
   65ed8:       54001580        b.eq    66188 <_ZN4hgrm5spdif31SpdifPlayerServiceDtsDecHandler12doDtsProcessEPNS0_10ParserInfoEPhjS4_+0x348>  // b.none
   65edc:       2a1b03e6        mov     w6, w27
   65ee0:       f0000325        adrp    x5, cc000 <_ZZN4hgrm5spdif23SpdifPlayerServiceDebug18DbgSetAlsaBufParamENS1_11debugInfo_tERKSt6vectorINSt7__cxx1112basic_stringIcSt11char_traitsIcESaIcEEESaIS9_EEE19__PRETTY_FUNCTION__+0x70>
   65ee4:       d00004e4        adrp    x4, 103000 <__FRAME_END__+0x1099c>
   65ee8:       90000343        adrp    x3, cd000 <_ZZN4hgrm5spdif31SpdifPlayerServiceAacDecHandler11dataCopyAacEPPhiS2_PjRNS0_11MultiChInfoEiiS4_E19__PRETTY_FUNCTION__+0x70>
   65eec:       90000341        adrp    x1, cd000 <_ZZN4hgrm5spdif31SpdifPlayerServiceAacDecHandler11dataCopyAacEPPhiS2_PjRNS0_11MultiChInfoEiiS4_E19__PRETTY_FUNCTION__+0x70>
   65ef0:       912ea0a5        add     x5, x5, #0xba8
   65ef4:       911b4084        add     x4, x4, #0x6d0
   65ef8:       912c6063        add     x3, x3, #0xb18
   65efc:       52803362        mov     w2, #0x19b                      // #411
   65f00:       911d0021        add     x1, x1, #0x740
   65f04:       52800060        mov     w0, #0x3                        // #3
   65f08:       97ff0786        bl      27d20 <_ZN3pst3log5PrintENS0_11log_level_tEPKciS3_PKNS0_9LogModuleES3_z@plt>
   65f0c:       a941d7b4        ldp     x20, x21, [x29, #24]
   65f10:       52800059        mov     w25, #0x2                       // #2
   65f14:       a94363b7        ldp     x23, x24, [x29, #48]
   65f18:       a944efba        ldp     x26, x27, [x29, #72]
   65f1c:       f9402fbc        ldr     x28, [x29, #88]
   65f20:       f946b273        ldr     x19, [x19, #3424]
   65f24:       2a1903e0        mov     w0, w25
   65f28:       f94057a2        ldr     x2, [x29, #168]
   65f2c:       f9400261        ldr     x1, [x19]
   65f30:       ca010041        eor     x1, x2, x1
   65f34:       b50038e1        cbnz    x1, 66650 <_ZN4hgrm5spdif31SpdifPlayerServiceDtsDecHandler12doDtsProcessEPNS0_10ParserInfoEPhjS4_+0x810>
   65f38:       a9447bfd        ldp     x29, x30, [sp, #64]
   65f3c:       f9402bf3        ldr     x19, [sp, #80]
   65f40:       f94037f6        ldr     x22, [sp, #104]
   65f44:       f94043f9        ldr     x25, [sp, #128]
   65f48:       9103c3ff        add     sp, sp, #0xf0
   65f4c:       d65f03c0        ret
   65f50:       b940c01b        ldr     w27, [x0, #192]
   65f54:       71000f7f        cmp     w27, #0x3
   65f58:       540002c0        b.eq    65fb0 <_ZN4hgrm5spdif31SpdifPlayerServiceDtsDecHandler12doDtsProcessEPNS0_10ParserInfoEPhjS4_+0x170>  // b.none
   65f5c:       7100177f        cmp     w27, #0x5
   65f60:       54000280        b.eq    65fb0 <_ZN4hgrm5spdif31SpdifPlayerServiceDtsDecHandler12doDtsProcessEPNS0_10ParserInfoEPhjS4_+0x170>  // b.none
   65f64:       7100077f        cmp     w27, #0x1
   65f68:       54fffba1        b.ne    65edc <_ZN4hgrm5spdif31SpdifPlayerServiceDtsDecHandler12doDtsProcessEPNS0_10ParserInfoEPhjS4_+0x9c>  // b.any
   65f6c:       97ff0ac1        bl      28a70 <_ZN4hgrm5spdif21SpdifPlayerPacketBase9GetUnreadEv@plt>
   65f70:       aa0003e1        mov     x1, x0
   65f74:       b5001e20        cbnz    x0, 66338 <_ZN4hgrm5spdif31SpdifPlayerServiceDtsDecHandler12doDtsProcessEPNS0_10ParserInfoEPhjS4_+0x4f8>
   65f78:       52800040        mov     w0, #0x2                        // #2
   65f7c:       b900c340        str     w0, [x26, #192]
   65f80:       aa1703e1        mov     x1, x23
   65f84:       aa1a03e0        mov     x0, x26
   65f88:       97ff0ba6        bl      28e20 <_ZN4hgrm5spdif31SpdifPlayerServiceDtsDecHandler7initDtsEPNS0_17ParserDynamicInfoE@plt>
   65f8c:       2a0003f9        mov     w25, w0
   65f90:       350016c0        cbnz    w0, 66268 <_ZN4hgrm5spdif31SpdifPlayerServiceDtsDecHandler12doDtsProcessEPNS0_10ParserInfoEPhjS4_+0x428>
   65f94:       52800060        mov     w0, #0x3                        // #3
   65f98:       b900c340        str     w0, [x26, #192]
   65f9c:       a941d7b4        ldp     x20, x21, [x29, #24]
   65fa0:       a94363b7        ldp     x23, x24, [x29, #48]
   65fa4:       a944efba        ldp     x26, x27, [x29, #72]
   65fa8:       f9402fbc        ldr     x28, [x29, #88]
   65fac:       17ffffdd        b       65f20 <_ZN4hgrm5spdif31SpdifPlayerServiceDtsDecHandler12doDtsProcessEPNS0_10ParserInfoEPhjS4_+0xe0>
   65fb0:       aa1903e2        mov     x2, x25
   65fb4:       9105c346        add     x6, x26, #0x170
   65fb8:       910293a5        add     x5, x29, #0xa4
   65fbc:       aa1c03e4        mov     x4, x28
   65fc0:       2a1803e3        mov     w3, w24
   65fc4:       aa1703e1        mov     x1, x23
   65fc8:       aa1a03e0        mov     x0, x26
   65fcc:       97ff065d        bl      27940 <_ZN4hgrm5spdif31SpdifPlayerServiceDtsDecHandler9decodeDtsEPNS0_17ParserDynamicInfoEPhjS4_PjPNS0_10DtsOutInfoE@plt>
   65fd0:       2a0003f9        mov     w25, w0
   65fd4:       35001120        cbnz    w0, 661f8 <_ZN4hgrm5spdif31SpdifPlayerServiceDtsDecHandler12doDtsProcessEPNS0_10ParserInfoEPhjS4_+0x3b8>
   65fd8:       f9400342        ldr     x2, [x26]
   65fdc:       aa1603e1        mov     x1, x22
   65fe0:       aa1a03e0        mov     x0, x26
   65fe4:       f9401c42        ldr     x2, [x2, #56]
   65fe8:       d63f0040        blr     x2
   65fec:       2a0003f9        mov     w25, w0
   65ff0:       35001b80        cbnz    w0, 66360 <_ZN4hgrm5spdif31SpdifPlayerServiceDtsDecHandler12doDtsProcessEPNS0_10ParserInfoEPhjS4_+0x520>
   65ff4:       3944d340        ldrb    w0, [x26, #308]
   65ff8:       34001cc0        cbz     w0, 66390 <_ZN4hgrm5spdif31SpdifPlayerServiceDtsDecHandler12doDtsProcessEPNS0_10ParserInfoEPhjS4_+0x550>
   65ffc:       b940a7a3        ldr     w3, [x29, #164]
   66000:       34000ae3        cbz     w3, 6615c <_ZN4hgrm5spdif31SpdifPlayerServiceDtsDecHandler12doDtsProcessEPNS0_10ParserInfoEPhjS4_+0x31c>
   66004:       3946c347        ldrb    w7, [x26, #432]
   66008:       52800020        mov     w0, #0x1                        // #1
   6600c:       b9000bff        str     wzr, [sp, #8]
   66010:       f0000328        adrp    x8, cd000 <_ZZN4hgrm5spdif31SpdifPlayerServiceAacDecHandler11dataCopyAacEPPhiS2_PjRNS0_11MultiChInfoEiiS4_E19__PRETTY_FUNCTION__+0x70>
   66014:       b90003e0        str     w0, [sp]
   66018:       4a0000f4        eor     w20, w7, w0
   6601c:       f0000321        adrp    x1, cd000 <_ZZN4hgrm5spdif31SpdifPlayerServiceAacDecHandler11dataCopyAacEPPhiS2_PjRNS0_11MultiChInfoEiiS4_E19__PRETTY_FUNCTION__+0x70>
   66020:       b00004e0        adrp    x0, 103000 <__FRAME_END__+0x1099c>
   66024:       912c6023        add     x3, x1, #0xb18
   66028:       a90887a8        stp     x8, x1, [x29, #136]
   6602c:       911b4004        add     x4, x0, #0x6d0
   66030:       b9400af5        ldr     w21, [x23, #8]
   66034:       b941a35b        ldr     w27, [x26, #416]
   66038:       f0000325        adrp    x5, cd000 <_ZZN4hgrm5spdif31SpdifPlayerServiceAacDecHandler11dataCopyAacEPPhiS2_PjRNS0_11MultiChInfoEiiS4_E19__PRETTY_FUNCTION__+0x70>
   6603c:       f9004fa0        str     x0, [x29, #152]
   66040:       2a1403e6        mov     w6, w20
   66044:       52800060        mov     w0, #0x3                        // #3
   66048:       9115e0a5        add     x5, x5, #0x578
   6604c:       52803822        mov     w2, #0x1c1                      // #449
   66050:       911d0101        add     x1, x8, #0x740
   66054:       b9418759        ldr     w25, [x26, #388]
   66058:       b9418b57        ldr     w23, [x26, #392]
   6605c:       b9419f58        ldr     w24, [x26, #412]
   66060:       97ff0730        bl      27d20 <_ZN3pst3log5PrintENS0_11log_level_tEPKciS3_PKNS0_9LogModuleES3_z@plt>
   66064:       b9412740        ldr     w0, [x26, #292]
   66068:       6b1b001f        cmp     w0, w27
   6606c:       540000c0        b.eq    66084 <_ZN4hgrm5spdif31SpdifPlayerServiceDtsDecHandler12doDtsProcessEPNS0_10ParserInfoEPhjS4_+0x244>  // b.none
   66070:       f9408340        ldr     x0, [x26, #256]
   66074:       b4000060        cbz     x0, 66080 <_ZN4hgrm5spdif31SpdifPlayerServiceDtsDecHandler12doDtsProcessEPNS0_10ParserInfoEPhjS4_+0x240>
   66078:       2a1b03e1        mov     w1, w27
   6607c:       97ff0b01        bl      28c80 <_ZN4hgrm5spdif22SpdifPlayerServiceCore19NotifyDtsAnalogGainEi@plt>
   66080:       b901275b        str     w27, [x26, #292]
   66084:       b9413341        ldr     w1, [x26, #304]
   66088:       b941a740        ldr     w0, [x26, #420]
   6608c:       6b00003f        cmp     w1, w0
   66090:       540000c0        b.eq    660a8 <_ZN4hgrm5spdif31SpdifPlayerServiceDtsDecHandler12doDtsProcessEPNS0_10ParserInfoEPhjS4_+0x268>  // b.none
   66094:       f9408341        ldr     x1, [x26, #256]
   66098:       b4000061        cbz     x1, 660a4 <_ZN4hgrm5spdif31SpdifPlayerServiceDtsDecHandler12doDtsProcessEPNS0_10ParserInfoEPhjS4_+0x264>
   6609c:       b9042c20        str     w0, [x1, #1068]
   660a0:       b941a740        ldr     w0, [x26, #420]
   660a4:       b9013340        str     w0, [x26, #304]
   660a8:       b9411746        ldr     w6, [x26, #276]
   660ac:       6b1500df        cmp     w6, w21
   660b0:       54002640        b.eq    66578 <_ZN4hgrm5spdif31SpdifPlayerServiceDtsDecHandler12doDtsProcessEPNS0_10ParserInfoEPhjS4_+0x738>  // b.none
   660b4:       f9408340        ldr     x0, [x26, #256]
   660b8:       b4000480        cbz     x0, 66148 <_ZN4hgrm5spdif31SpdifPlayerServiceDtsDecHandler12doDtsProcessEPNS0_10ParserInfoEPhjS4_+0x308>
   660bc:       b9411b40        ldr     w0, [x26, #280]
   660c0:       2a1503e7        mov     w7, w21
   660c4:       3944b343        ldrb    w3, [x26, #300]
   660c8:       f0000325        adrp    x5, cd000 <_ZZN4hgrm5spdif31SpdifPlayerServiceAacDecHandler11dataCopyAacEPPhiS2_PjRNS0_11MultiChInfoEiiS4_E19__PRETTY_FUNCTION__+0x70>
   660cc:       b9411f41        ldr     w1, [x26, #284]
   660d0:       911760a5        add     x5, x5, #0x5d8
   660d4:       b9412342        ldr     w2, [x26, #288]
   660d8:       b90003e0        str     w0, [sp]
   660dc:       f9404fa0        ldr     x0, [x29, #152]
   660e0:       b90013e1        str     w1, [sp, #16]
   660e4:       911b4004        add     x4, x0, #0x6d0
   660e8:       f9404ba0        ldr     x0, [x29, #144]
   660ec:       b90023e2        str     w2, [sp, #32]
   660f0:       52803ac2        mov     w2, #0x1d6                      // #470
   660f4:       b90033e3        str     w3, [sp, #48]
   660f8:       912c6003        add     x3, x0, #0xb18
   660fc:       b9000bf7        str     w23, [sp, #8]
   66100:       f94047a0        ldr     x0, [x29, #136]
   66104:       b9001bf8        str     w24, [sp, #24]
   66108:       b9002bf9        str     w25, [sp, #40]
   6610c:       911d0001        add     x1, x0, #0x740
   66110:       b9003bf4        str     w20, [sp, #56]
   66114:       52800060        mov     w0, #0x3                        // #3
   66118:       97ff0702        bl      27d20 <_ZN3pst3log5PrintENS0_11log_level_tEPKciS3_PKNS0_9LogModuleES3_z@plt>
   6611c:       f9408340        ldr     x0, [x26, #256]
   66120:       91063741        add     x1, x26, #0x18d
   66124:       f90003e1        str     x1, [sp]
   66128:       52800007        mov     w7, #0x0                        // #0
   6612c:       2a1403e6        mov     w6, w20
   66130:       52800005        mov     w5, #0x0                        // #0
   66134:       2a1803e4        mov     w4, w24
   66138:       2a1703e3        mov     w3, w23
   6613c:       2a1903e2        mov     w2, w25
   66140:       2a1503e1        mov     w1, w21
   66144:       97ff0e27        bl      299e0 <_ZN4hgrm5spdif22SpdifPlayerServiceCore16NotifyUpdateInfoENS0_10FormatTypeEijjbbbPh@plt>
   66148:       91040340        add     x0, x26, #0x100
   6614c:       3904b354        strb    w20, [x26, #300]
   66150:       b940a7a3        ldr     w3, [x29, #164]
   66154:       2902dc15        stp     w21, w23, [x0, #20]
   66158:       2903e418        stp     w24, w25, [x0, #28]
   6615c:       aa1c03e2        mov     x2, x28
   66160:       aa1a03e0        mov     x0, x26
   66164:       52800004        mov     w4, #0x0                        // #0
   66168:       aa1603e1        mov     x1, x22
   6616c:       97ff07d5        bl      280c0 <_ZN4hgrm5spdif31SpdifPlayerServiceDtsDecHandler16doDtsSendProcessEPNS0_10ParserInfoEPhjb@plt>
   66170:       f9402fbc        ldr     x28, [x29, #88]
   66174:       2a0003f9        mov     w25, w0
   66178:       a941d7b4        ldp     x20, x21, [x29, #24]
   6617c:       a94363b7        ldp     x23, x24, [x29, #48]
   66180:       a944efba        ldp     x26, x27, [x29, #72]
   66184:       17ffff67        b       65f20 <_ZN4hgrm5spdif31SpdifPlayerServiceDtsDecHandler12doDtsProcessEPNS0_10ParserInfoEPhjS4_+0xe0>
   66188:       aa1403e0        mov     x0, x20
   6618c:       97ff0569        bl      27730 <pthread_mutex_lock@plt>
   66190:       350026a0        cbnz    w0, 66664 <_ZN4hgrm5spdif31SpdifPlayerServiceDtsDecHandler12doDtsProcessEPNS0_10ParserInfoEPhjS4_+0x824>
   66194:       aa1a03e0        mov     x0, x26
   66198:       97ff0a36        bl      28a70 <_ZN4hgrm5spdif21SpdifPlayerPacketBase9GetUnreadEv@plt>
   6619c:       aa0003e1        mov     x1, x0
   661a0:       b5000cc0        cbnz    x0, 66338 <_ZN4hgrm5spdif31SpdifPlayerServiceDtsDecHandler12doDtsProcessEPNS0_10ParserInfoEPhjS4_+0x4f8>
   661a4:       52800040        mov     w0, #0x2                        // #2
   661a8:       b900c340        str     w0, [x26, #192]
   661ac:       aa1403e0        mov     x0, x20
   661b0:       97ff0798        bl      28010 <pthread_mutex_unlock@plt>
   661b4:       aa1703e1        mov     x1, x23
   661b8:       aa1a03e0        mov     x0, x26
   661bc:       97ff0b19        bl      28e20 <_ZN4hgrm5spdif31SpdifPlayerServiceDtsDecHandler7initDtsEPNS0_17ParserDynamicInfoE@plt>
   661c0:       2a0003f9        mov     w25, w0
   661c4:       35000520        cbnz    w0, 66268 <_ZN4hgrm5spdif31SpdifPlayerServiceDtsDecHandler12doDtsProcessEPNS0_10ParserInfoEPhjS4_+0x428>
   661c8:       aa1403e0        mov     x0, x20
   661cc:       97ff0559        bl      27730 <pthread_mutex_lock@plt>
   661d0:       350024a0        cbnz    w0, 66664 <_ZN4hgrm5spdif31SpdifPlayerServiceDtsDecHandler12doDtsProcessEPNS0_10ParserInfoEPhjS4_+0x824>
   661d4:       52800060        mov     w0, #0x3                        // #3
   661d8:       b900c340        str     w0, [x26, #192]
   661dc:       aa1403e0        mov     x0, x20
   661e0:       97ff078c        bl      28010 <pthread_mutex_unlock@plt>
   661e4:       f9402fbc        ldr     x28, [x29, #88]
   661e8:       a941d7b4        ldp     x20, x21, [x29, #24]
   661ec:       a94363b7        ldp     x23, x24, [x29, #48]
   661f0:       a944efba        ldp     x26, x27, [x29, #72]
   661f4:       17ffff4b        b       65f20 <_ZN4hgrm5spdif31SpdifPlayerServiceDtsDecHandler12doDtsProcessEPNS0_10ParserInfoEPhjS4_+0xe0>
   661f8:       b00004e0        adrp    x0, 103000 <__FRAME_END__+0x1099c>
   661fc:       911b4004        add     x4, x0, #0x6d0
   66200:       f9004fa0        str     x0, [x29, #152]
   66204:       f0000320        adrp    x0, cd000 <_ZZN4hgrm5spdif31SpdifPlayerServiceAacDecHandler11dataCopyAacEPPhiS2_PjRNS0_11MultiChInfoEiiS4_E19__PRETTY_FUNCTION__+0x70>
   66208:       f0000321        adrp    x1, cd000 <_ZZN4hgrm5spdif31SpdifPlayerServiceAacDecHandler11dataCopyAacEPPhiS2_PjRNS0_11MultiChInfoEiiS4_E19__PRETTY_FUNCTION__+0x70>
   6620c:       912c6003        add     x3, x0, #0xb18
   66210:       f9004ba0        str     x0, [x29, #144]
   66214:       911d0020        add     x0, x1, #0x740
   66218:       f90047a1        str     x1, [x29, #136]
   6621c:       b00002fc        adrp    x28, c3000 <CSWTCH.240+0x5c0>
   66220:       aa0003e1        mov     x1, x0
   66224:       91116385        add     x5, x28, #0x458
   66228:       f90037a0        str     x0, [x29, #104]
   6622c:       f0000326        adrp    x6, cd000 <_ZZN4hgrm5spdif31SpdifPlayerServiceAacDecHandler11dataCopyAacEPPhiS2_PjRNS0_11MultiChInfoEiiS4_E19__PRETTY_FUNCTION__+0x70>
   66230:       52802d82        mov     w2, #0x16c                      // #364
   66234:       911520c6        add     x6, x6, #0x548
   66238:       a90797a4        stp     x4, x5, [x29, #120]
   6623c:       52800060        mov     w0, #0x3                        // #3
   66240:       f9003ba3        str     x3, [x29, #112]
   66244:       97ff06b7        bl      27d20 <_ZN3pst3log5PrintENS0_11log_level_tEPKciS3_PKNS0_9LogModuleES3_z@plt>
   66248:       71001f3f        cmp     w25, #0x7
   6624c:       54000d60        b.eq    663f8 <_ZN4hgrm5spdif31SpdifPlayerServiceDtsDecHandler12doDtsProcessEPNS0_10ParserInfoEPhjS4_+0x5b8>  // b.none
   66250:       a941d7b4        ldp     x20, x21, [x29, #24]
   66254:       a94363b7        ldp     x23, x24, [x29, #48]
   66258:       a944efba        ldp     x26, x27, [x29, #72]
   6625c:       f9402fbc        ldr     x28, [x29, #88]
   66260:       17ffff30        b       65f20 <_ZN4hgrm5spdif31SpdifPlayerServiceDtsDecHandler12doDtsProcessEPNS0_10ParserInfoEPhjS4_+0xe0>
   66264:       d503201f        nop
   66268:       b00002f7        adrp    x23, c3000 <CSWTCH.240+0x5c0>
   6626c:       b00004f6        adrp    x22, 103000 <__FRAME_END__+0x1099c>
   66270:       911162f7        add     x23, x23, #0x458
   66274:       911b42d6        add     x22, x22, #0x6d0
   66278:       f0000335        adrp    x21, cd000 <_ZZN4hgrm5spdif31SpdifPlayerServiceAacDecHandler11dataCopyAacEPPhiS2_PjRNS0_11MultiChInfoEiiS4_E19__PRETTY_FUNCTION__+0x70>
   6627c:       912c62b5        add     x21, x21, #0xb18
   66280:       f0000326        adrp    x6, cd000 <_ZZN4hgrm5spdif31SpdifPlayerServiceAacDecHandler11dataCopyAacEPPhiS2_PjRNS0_11MultiChInfoEiiS4_E19__PRETTY_FUNCTION__+0x70>
   66284:       aa1703e5        mov     x5, x23
   66288:       9114e0c6        add     x6, x6, #0x538
   6628c:       aa1603e4        mov     x4, x22
   66290:       aa1503e3        mov     x3, x21
   66294:       f0000334        adrp    x20, cd000 <_ZZN4hgrm5spdif31SpdifPlayerServiceAacDecHandler11dataCopyAacEPPhiS2_PjRNS0_11MultiChInfoEiiS4_E19__PRETTY_FUNCTION__+0x70>
   66298:       52802b82        mov     w2, #0x15c                      // #348
   6629c:       911d0294        add     x20, x20, #0x740
   662a0:       aa1403e1        mov     x1, x20
   662a4:       52800060        mov     w0, #0x3                        // #3
   662a8:       97ff069e        bl      27d20 <_ZN3pst3log5PrintENS0_11log_level_tEPKciS3_PKNS0_9LogModuleES3_z@plt>
   662ac:       52800001        mov     w1, #0x0                        // #0
   662b0:       aa1a03e0        mov     x0, x26
   662b4:       97ff03f7        bl      27290 <_ZN4hgrm5spdif31SpdifPlayerServiceDtsDecHandler10destroyDtsEb@plt>
   662b8:       34fffcc0        cbz     w0, 66250 <_ZN4hgrm5spdif31SpdifPlayerServiceDtsDecHandler12doDtsProcessEPNS0_10ParserInfoEPhjS4_+0x410>
   662bc:       f0000326        adrp    x6, cd000 <_ZZN4hgrm5spdif31SpdifPlayerServiceAacDecHandler11dataCopyAacEPPhiS2_PjRNS0_11MultiChInfoEiiS4_E19__PRETTY_FUNCTION__+0x70>
   662c0:       aa1703e5        mov     x5, x23
   662c4:       911c20c6        add     x6, x6, #0x708
   662c8:       aa1603e4        mov     x4, x22
   662cc:       aa1503e3        mov     x3, x21
   662d0:       aa1403e1        mov     x1, x20
   662d4:       52802be2        mov     w2, #0x15f                      // #351
   662d8:       52800060        mov     w0, #0x3                        // #3
   662dc:       97ff0691        bl      27d20 <_ZN3pst3log5PrintENS0_11log_level_tEPKciS3_PKNS0_9LogModuleES3_z@plt>
   662e0:       a941d7b4        ldp     x20, x21, [x29, #24]
   662e4:       a94363b7        ldp     x23, x24, [x29, #48]
   662e8:       a944efba        ldp     x26, x27, [x29, #72]
   662ec:       f9402fbc        ldr     x28, [x29, #88]
   662f0:       17ffff0c        b       65f20 <_ZN4hgrm5spdif31SpdifPlayerServiceDtsDecHandler12doDtsProcessEPNS0_10ParserInfoEPhjS4_+0xe0>
   662f4:       d503201f        nop
   662f8:       90000326        adrp    x6, ca000 <_ZZNK4hgrm5spdif21SpdifPlayerPacketBase9getPacketENS0_10MemoryKindEE19__PRETTY_FUNCTION__+0x5b0>
   662fc:       b00002e5        adrp    x5, c3000 <CSWTCH.240+0x5c0>
   66300:       b00004e4        adrp    x4, 103000 <__FRAME_END__+0x1099c>
   66304:       f0000323        adrp    x3, cd000 <_ZZN4hgrm5spdif31SpdifPlayerServiceAacDecHandler11dataCopyAacEPPhiS2_PjRNS0_11MultiChInfoEiiS4_E19__PRETTY_FUNCTION__+0x70>
   66308:       f0000321        adrp    x1, cd000 <_ZZN4hgrm5spdif31SpdifPlayerServiceAacDecHandler11dataCopyAacEPPhiS2_PjRNS0_11MultiChInfoEiiS4_E19__PRETTY_FUNCTION__+0x70>
   6630c:       913900c6        add     x6, x6, #0xe40
   66310:       911160a5        add     x5, x5, #0x458
   66314:       911b4084        add     x4, x4, #0x6d0
   66318:       912c6063        add     x3, x3, #0xb18
   6631c:       52802862        mov     w2, #0x143                      // #323
   66320:       911d0021        add     x1, x1, #0x740
   66324:       52800060        mov     w0, #0x3                        // #3
   66328:       52800059        mov     w25, #0x2                       // #2
   6632c:       97ff067d        bl      27d20 <_ZN3pst3log5PrintENS0_11log_level_tEPKciS3_PKNS0_9LogModuleES3_z@plt>
   66330:       17fffefc        b       65f20 <_ZN4hgrm5spdif31SpdifPlayerServiceDtsDecHandler12doDtsProcessEPNS0_10ParserInfoEPhjS4_+0xe0>
   66334:       d503201f        nop
   66338:       b941d742        ldr     w2, [x26, #468]
   6633c:       aa1a03e0        mov     x0, x26
   66340:       0b010041        add     w1, w2, w1
   66344:       b901d741        str     w1, [x26, #468]
   66348:       97ff1052        bl      2a490 <_ZN4hgrm5spdif21SpdifPlayerPacketBase11ClearUnreadEv@plt>
   6634c:       f94696b5        ldr     x21, [x21, #3368]
   66350:       52800040        mov     w0, #0x2                        // #2
   66354:       b900c340        str     w0, [x26, #192]
   66358:       b4ffe155        cbz     x21, 65f80 <_ZN4hgrm5spdif31SpdifPlayerServiceDtsDecHandler12doDtsProcessEPNS0_10ParserInfoEPhjS4_+0x140>
   6635c:       17ffff94        b       661ac <_ZN4hgrm5spdif31SpdifPlayerServiceDtsDecHandler12doDtsProcessEPNS0_10ParserInfoEPhjS4_+0x36c>
   66360:       f0000326        adrp    x6, cd000 <_ZZN4hgrm5spdif31SpdifPlayerServiceAacDecHandler11dataCopyAacEPPhiS2_PjRNS0_11MultiChInfoEiiS4_E19__PRETTY_FUNCTION__+0x70>
   66364:       b00002e5        adrp    x5, c3000 <CSWTCH.240+0x5c0>
   66368:       b00004e4        adrp    x4, 103000 <__FRAME_END__+0x1099c>
   6636c:       f0000323        adrp    x3, cd000 <_ZZN4hgrm5spdif31SpdifPlayerServiceAacDecHandler11dataCopyAacEPPhiS2_PjRNS0_11MultiChInfoEiiS4_E19__PRETTY_FUNCTION__+0x70>
   66370:       f0000321        adrp    x1, cd000 <_ZZN4hgrm5spdif31SpdifPlayerServiceAacDecHandler11dataCopyAacEPPhiS2_PjRNS0_11MultiChInfoEiiS4_E19__PRETTY_FUNCTION__+0x70>
   66374:       911580c6        add     x6, x6, #0x560
   66378:       911160a5        add     x5, x5, #0x458
   6637c:       911b4084        add     x4, x4, #0x6d0
   66380:       912c6063        add     x3, x3, #0xb18
   66384:       528034c2        mov     w2, #0x1a6                      // #422
   66388:       911d0021        add     x1, x1, #0x740
   6638c:       17ffffd3        b       662d8 <_ZN4hgrm5spdif31SpdifPlayerServiceDtsDecHandler12doDtsProcessEPNS0_10ParserInfoEPhjS4_+0x498>
   66390:       f94696b5        ldr     x21, [x21, #3368]
   66394:       b40009f5        cbz     x21, 664d0 <_ZN4hgrm5spdif31SpdifPlayerServiceDtsDecHandler12doDtsProcessEPNS0_10ParserInfoEPhjS4_+0x690>
   66398:       aa1403e0        mov     x0, x20
   6639c:       97ff04e5        bl      27730 <pthread_mutex_lock@plt>
   663a0:       35001620        cbnz    w0, 66664 <_ZN4hgrm5spdif31SpdifPlayerServiceDtsDecHandler12doDtsProcessEPNS0_10ParserInfoEPhjS4_+0x824>
   663a4:       b940c355        ldr     w21, [x26, #192]
   663a8:       aa1403e0        mov     x0, x20
   663ac:       97ff0719        bl      28010 <pthread_mutex_unlock@plt>
   663b0:       710012bf        cmp     w21, #0x4
   663b4:       54fff4e1        b.ne    66250 <_ZN4hgrm5spdif31SpdifPlayerServiceDtsDecHandler12doDtsProcessEPNS0_10ParserInfoEPhjS4_+0x410>  // b.any
   663b8:       aa1403e0        mov     x0, x20
   663bc:       97ff04dd        bl      27730 <pthread_mutex_lock@plt>
   663c0:       35001520        cbnz    w0, 66664 <_ZN4hgrm5spdif31SpdifPlayerServiceDtsDecHandler12doDtsProcessEPNS0_10ParserInfoEPhjS4_+0x824>
   663c4:       528000a0        mov     w0, #0x5                        // #5
   663c8:       b901db55        str     w21, [x26, #472]
   663cc:       b900c340        str     w0, [x26, #192]
   663d0:       aa1403e0        mov     x0, x20
   663d4:       97ff070f        bl      28010 <pthread_mutex_unlock@plt>
   663d8:       52800020        mov     w0, #0x1                        // #1
   663dc:       3904d340        strb    w0, [x26, #308]
   663e0:       a941d7b4        ldp     x20, x21, [x29, #24]
   663e4:       a94363b7        ldp     x23, x24, [x29, #48]
   663e8:       a944efba        ldp     x26, x27, [x29, #72]
   663ec:       f9402fbc        ldr     x28, [x29, #88]
   663f0:       17fffecc        b       65f20 <_ZN4hgrm5spdif31SpdifPlayerServiceDtsDecHandler12doDtsProcessEPNS0_10ParserInfoEPhjS4_+0xe0>
   663f4:       d503201f        nop
   663f8:       9102c3a2        add     x2, x29, #0xb0
   663fc:       52800024        mov     w4, #0x1                        // #1
   66400:       2a1803e3        mov     w3, w24
   66404:       aa1603e1        mov     x1, x22
   66408:       aa1a03e0        mov     x0, x26
   6640c:       381f3c5f        strb    wzr, [x2, #-13]!
   66410:       97ff072c        bl      280c0 <_ZN4hgrm5spdif31SpdifPlayerServiceDtsDecHandler16doDtsSendProcessEPNS0_10ParserInfoEPhjb@plt>
   66414:       35000fe0        cbnz    w0, 66610 <_ZN4hgrm5spdif31SpdifPlayerServiceDtsDecHandler12doDtsProcessEPNS0_10ParserInfoEPhjS4_+0x7d0>
   66418:       f94696a0        ldr     x0, [x21, #3368]
   6641c:       52800181        mov     w1, #0xc                        // #12
   66420:       3904d35f        strb    wzr, [x26, #308]
   66424:       b9013b41        str     w1, [x26, #312]
   66428:       b4000c40        cbz     x0, 665b0 <_ZN4hgrm5spdif31SpdifPlayerServiceDtsDecHandler12doDtsProcessEPNS0_10ParserInfoEPhjS4_+0x770>
   6642c:       aa1403e0        mov     x0, x20
   66430:       97ff04c0        bl      27730 <pthread_mutex_lock@plt>
   66434:       35001180        cbnz    w0, 66664 <_ZN4hgrm5spdif31SpdifPlayerServiceDtsDecHandler12doDtsProcessEPNS0_10ParserInfoEPhjS4_+0x824>
   66438:       aa1a03e0        mov     x0, x26
   6643c:       97ff098d        bl      28a70 <_ZN4hgrm5spdif21SpdifPlayerPacketBase9GetUnreadEv@plt>
   66440:       b4001020        cbz     x0, 66644 <_ZN4hgrm5spdif31SpdifPlayerServiceDtsDecHandler12doDtsProcessEPNS0_10ParserInfoEPhjS4_+0x804>
   66444:       7100177f        cmp     w27, #0x5
   66448:       54000fa0        b.eq    6663c <_ZN4hgrm5spdif31SpdifPlayerServiceDtsDecHandler12doDtsProcessEPNS0_10ParserInfoEPhjS4_+0x7fc>  // b.none
   6644c:       b941d741        ldr     w1, [x26, #468]
   66450:       0b000020        add     w0, w1, w0
   66454:       b901d740        str     w0, [x26, #468]
   66458:       aa1a03e0        mov     x0, x26
   6645c:       97ff100d        bl      2a490 <_ZN4hgrm5spdif21SpdifPlayerPacketBase11ClearUnreadEv@plt>
   66460:       f94696a0        ldr     x0, [x21, #3368]
   66464:       52800041        mov     w1, #0x2                        // #2
   66468:       b900c341        str     w1, [x26, #192]
   6646c:       b4000ac0        cbz     x0, 665c4 <_ZN4hgrm5spdif31SpdifPlayerServiceDtsDecHandler12doDtsProcessEPNS0_10ParserInfoEPhjS4_+0x784>
   66470:       aa1403e0        mov     x0, x20
   66474:       97ff06e7        bl      28010 <pthread_mutex_unlock@plt>
   66478:       52800021        mov     w1, #0x1                        // #1
   6647c:       aa1a03e0        mov     x0, x26
   66480:       97ff0384        bl      27290 <_ZN4hgrm5spdif31SpdifPlayerServiceDtsDecHandler10destroyDtsEb@plt>
   66484:       2a0003f9        mov     w25, w0
   66488:       34000340        cbz     w0, 664f0 <_ZN4hgrm5spdif31SpdifPlayerServiceDtsDecHandler12doDtsProcessEPNS0_10ParserInfoEPhjS4_+0x6b0>
   6648c:       f9404fa0        ldr     x0, [x29, #152]
   66490:       f0000326        adrp    x6, cd000 <_ZZN4hgrm5spdif31SpdifPlayerServiceAacDecHandler11dataCopyAacEPPhiS2_PjRNS0_11MultiChInfoEiiS4_E19__PRETTY_FUNCTION__+0x70>
   66494:       91116385        add     x5, x28, #0x458
   66498:       911c20c6        add     x6, x6, #0x708
   6649c:       911b4004        add     x4, x0, #0x6d0
   664a0:       f9404ba0        ldr     x0, [x29, #144]
   664a4:       52803082        mov     w2, #0x184                      // #388
   664a8:       912c6003        add     x3, x0, #0xb18
   664ac:       f94047a0        ldr     x0, [x29, #136]
   664b0:       911d0001        add     x1, x0, #0x740
   664b4:       52800060        mov     w0, #0x3                        // #3
   664b8:       97ff061a        bl      27d20 <_ZN3pst3log5PrintENS0_11log_level_tEPKciS3_PKNS0_9LogModuleES3_z@plt>
   664bc:       aa1403e0        mov     x0, x20
   664c0:       97ff049c        bl      27730 <pthread_mutex_lock@plt>
   664c4:       35000d00        cbnz    w0, 66664 <_ZN4hgrm5spdif31SpdifPlayerServiceDtsDecHandler12doDtsProcessEPNS0_10ParserInfoEPhjS4_+0x824>
   664c8:       52800020        mov     w0, #0x1                        // #1
   664cc:       17ffff43        b       661d8 <_ZN4hgrm5spdif31SpdifPlayerServiceDtsDecHandler12doDtsProcessEPNS0_10ParserInfoEPhjS4_+0x398>
   664d0:       b940c340        ldr     w0, [x26, #192]
   664d4:       7100101f        cmp     w0, #0x4
   664d8:       54ffebc1        b.ne    66250 <_ZN4hgrm5spdif31SpdifPlayerServiceDtsDecHandler12doDtsProcessEPNS0_10ParserInfoEPhjS4_+0x410>  // b.any
   664dc:       528000a1        mov     w1, #0x5                        // #5
   664e0:       b901db40        str     w0, [x26, #472]
   664e4:       b900c341        str     w1, [x26, #192]
   664e8:       17ffffbc        b       663d8 <_ZN4hgrm5spdif31SpdifPlayerServiceDtsDecHandler12doDtsProcessEPNS0_10ParserInfoEPhjS4_+0x598>
   664ec:       d503201f        nop
   664f0:       aa1703e1        mov     x1, x23
   664f4:       aa1a03e0        mov     x0, x26
   664f8:       97ff0a4a        bl      28e20 <_ZN4hgrm5spdif31SpdifPlayerServiceDtsDecHandler7initDtsEPNS0_17ParserDynamicInfoE@plt>
   664fc:       2a0003f9        mov     w25, w0
   66500:       34000980        cbz     w0, 66630 <_ZN4hgrm5spdif31SpdifPlayerServiceDtsDecHandler12doDtsProcessEPNS0_10ParserInfoEPhjS4_+0x7f0>
   66504:       f9404fa0        ldr     x0, [x29, #152]
   66508:       9111639c        add     x28, x28, #0x458
   6650c:       f0000326        adrp    x6, cd000 <_ZZN4hgrm5spdif31SpdifPlayerServiceAacDecHandler11dataCopyAacEPPhiS2_PjRNS0_11MultiChInfoEiiS4_E19__PRETTY_FUNCTION__+0x70>
   66510:       aa1c03e5        mov     x5, x28
   66514:       911b4015        add     x21, x0, #0x6d0
   66518:       f9404ba0        ldr     x0, [x29, #144]
   6651c:       9114e0c6        add     x6, x6, #0x538
   66520:       aa1503e4        mov     x4, x21
   66524:       912c6014        add     x20, x0, #0xb18
   66528:       f94047a0        ldr     x0, [x29, #136]
   6652c:       aa1403e3        mov     x3, x20
   66530:       52803182        mov     w2, #0x18c                      // #396
   66534:       911d001b        add     x27, x0, #0x740
   66538:       52800060        mov     w0, #0x3                        // #3
   6653c:       aa1b03e1        mov     x1, x27
   66540:       97ff05f8        bl      27d20 <_ZN3pst3log5PrintENS0_11log_level_tEPKciS3_PKNS0_9LogModuleES3_z@plt>
   66544:       52800001        mov     w1, #0x0                        // #0
   66548:       aa1a03e0        mov     x0, x26
   6654c:       97ff0351        bl      27290 <_ZN4hgrm5spdif31SpdifPlayerServiceDtsDecHandler10destroyDtsEb@plt>
   66550:       34ffe800        cbz     w0, 66250 <_ZN4hgrm5spdif31SpdifPlayerServiceDtsDecHandler12doDtsProcessEPNS0_10ParserInfoEPhjS4_+0x410>
   66554:       f0000326        adrp    x6, cd000 <_ZZN4hgrm5spdif31SpdifPlayerServiceAacDecHandler11dataCopyAacEPPhiS2_PjRNS0_11MultiChInfoEiiS4_E19__PRETTY_FUNCTION__+0x70>
   66558:       aa1c03e5        mov     x5, x28
   6655c:       911c20c6        add     x6, x6, #0x708
   66560:       aa1503e4        mov     x4, x21
   66564:       aa1403e3        mov     x3, x20
   66568:       528031e2        mov     w2, #0x18f                      // #399
   6656c:       aa1b03e1        mov     x1, x27
   66570:       17ffff5a        b       662d8 <_ZN4hgrm5spdif31SpdifPlayerServiceDtsDecHandler12doDtsProcessEPNS0_10ParserInfoEPhjS4_+0x498>
   66574:       d503201f        nop
   66578:       b9411b40        ldr     w0, [x26, #280]
   6657c:       6b17001f        cmp     w0, w23
   66580:       54ffd9a1        b.ne    660b4 <_ZN4hgrm5spdif31SpdifPlayerServiceDtsDecHandler12doDtsProcessEPNS0_10ParserInfoEPhjS4_+0x274>  // b.any
   66584:       b9411f40        ldr     w0, [x26, #284]
   66588:       6b18001f        cmp     w0, w24
   6658c:       54ffd941        b.ne    660b4 <_ZN4hgrm5spdif31SpdifPlayerServiceDtsDecHandler12doDtsProcessEPNS0_10ParserInfoEPhjS4_+0x274>  // b.any
   66590:       b9412340        ldr     w0, [x26, #288]
   66594:       6b19001f        cmp     w0, w25
   66598:       54ffd8e1        b.ne    660b4 <_ZN4hgrm5spdif31SpdifPlayerServiceDtsDecHandler12doDtsProcessEPNS0_10ParserInfoEPhjS4_+0x274>  // b.any
   6659c:       3944b340        ldrb    w0, [x26, #300]
   665a0:       6b14001f        cmp     w0, w20
   665a4:       54ffd881        b.ne    660b4 <_ZN4hgrm5spdif31SpdifPlayerServiceDtsDecHandler12doDtsProcessEPNS0_10ParserInfoEPhjS4_+0x274>  // b.any
   665a8:       b940a7a3        ldr     w3, [x29, #164]
   665ac:       17fffeec        b       6615c <_ZN4hgrm5spdif31SpdifPlayerServiceDtsDecHandler12doDtsProcessEPNS0_10ParserInfoEPhjS4_+0x31c>
   665b0:       aa1a03e0        mov     x0, x26
   665b4:       97ff092f        bl      28a70 <_ZN4hgrm5spdif21SpdifPlayerPacketBase9GetUnreadEv@plt>
   665b8:       b5000580        cbnz    x0, 66668 <_ZN4hgrm5spdif31SpdifPlayerServiceDtsDecHandler12doDtsProcessEPNS0_10ParserInfoEPhjS4_+0x828>
   665bc:       52800040        mov     w0, #0x2                        // #2
   665c0:       b900c340        str     w0, [x26, #192]
   665c4:       52800021        mov     w1, #0x1                        // #1
   665c8:       aa1a03e0        mov     x0, x26
   665cc:       97ff0331        bl      27290 <_ZN4hgrm5spdif31SpdifPlayerServiceDtsDecHandler10destroyDtsEb@plt>
   665d0:       2a0003f9        mov     w25, w0
   665d4:       34fff8e0        cbz     w0, 664f0 <_ZN4hgrm5spdif31SpdifPlayerServiceDtsDecHandler12doDtsProcessEPNS0_10ParserInfoEPhjS4_+0x6b0>
   665d8:       f9404fa0        ldr     x0, [x29, #152]
   665dc:       f0000326        adrp    x6, cd000 <_ZZN4hgrm5spdif31SpdifPlayerServiceAacDecHandler11dataCopyAacEPPhiS2_PjRNS0_11MultiChInfoEiiS4_E19__PRETTY_FUNCTION__+0x70>
   665e0:       91116385        add     x5, x28, #0x458
   665e4:       911c20c6        add     x6, x6, #0x708
   665e8:       911b4004        add     x4, x0, #0x6d0
   665ec:       f9404ba0        ldr     x0, [x29, #144]
   665f0:       52803082        mov     w2, #0x184                      // #388
   665f4:       912c6003        add     x3, x0, #0xb18
   665f8:       f94047a0        ldr     x0, [x29, #136]
   665fc:       911d0001        add     x1, x0, #0x740
   66600:       52800060        mov     w0, #0x3                        // #3
   66604:       97ff05c7        bl      27d20 <_ZN3pst3log5PrintENS0_11log_level_tEPKciS3_PKNS0_9LogModuleES3_z@plt>
                                                                        ## ELOG

   66608:       52800020        mov     w0, #0x1                        // #1
   6660c:       17fffe63        b       65f98 <_ZN4hgrm5spdif31SpdifPlayerServiceDtsDecHandler12doDtsProcessEPNS0_10ParserInfoEPhjS4_+0x158>
   66610:       a9468fa1        ldp     x1, x3, [x29, #104]
   66614:       90000326        adrp    x6, ca000 <_ZZNK4hgrm5spdif21SpdifPlayerPacketBase9getPacketENS0_10MemoryKindEE19__PRETTY_FUNCTION__+0x5b0>
   66618:       a94797a4        ldp     x4, x5, [x29, #120]
   6661c:       913880c6        add     x6, x6, #0xe20
   66620:       52802e82        mov     w2, #0x174                      // #372
   66624:       52800060        mov     w0, #0x3                        // #3
   66628:       97ff05be        bl      27d20 <_ZN3pst3log5PrintENS0_11log_level_tEPKciS3_PKNS0_9LogModuleES3_z@plt>
   6662c:       17ffff7b        b       66418 <_ZN4hgrm5spdif31SpdifPlayerServiceDtsDecHandler12doDtsProcessEPNS0_10ParserInfoEPhjS4_+0x5d8>
   66630:       f94696b5        ldr     x21, [x21, #3368]
   66634:       b5ffdcb5        cbnz    x21, 661c8 <_ZN4hgrm5spdif31SpdifPlayerServiceDtsDecHandler12doDtsProcessEPNS0_10ParserInfoEPhjS4_+0x388>
   66638:       17fffe57        b       65f94 <_ZN4hgrm5spdif31SpdifPlayerServiceDtsDecHandler12doDtsProcessEPNS0_10ParserInfoEPhjS4_+0x154>
   6663c:       aa1a03e0        mov     x0, x26
   66640:       97ff0f94        bl      2a490 <_ZN4hgrm5spdif21SpdifPlayerPacketBase11ClearUnreadEv@plt>
   66644:       52800040        mov     w0, #0x2                        // #2
   66648:       b900c340        str     w0, [x26, #192]
   6664c:       17ffff89        b       66470 <_ZN4hgrm5spdif31SpdifPlayerServiceDtsDecHandler12doDtsProcessEPNS0_10ParserInfoEPhjS4_+0x630>
   66650:       a901d7b4        stp     x20, x21, [x29, #24]
   66654:       a90363b7        stp     x23, x24, [x29, #48]
   66658:       a904efba        stp     x26, x27, [x29, #72]
   6665c:       f9002fbc        str     x28, [x29, #88]
   66660:       97ff049c        bl      278d0 <__stack_chk_fail@plt>
   66664:       97ff0723        bl      282f0 <_ZSt20__throw_system_errori@plt>
   66668:       7100177f        cmp     w27, #0x5
   6666c:       54ffef01        b.ne    6644c <_ZN4hgrm5spdif31SpdifPlayerServiceDtsDecHandler12doDtsProcessEPNS0_10ParserInfoEPhjS4_+0x60c>  // b.any
   66670:       17ffff7a        b       66458 <_ZN4hgrm5spdif31SpdifPlayerServiceDtsDecHandler12doDtsProcessEPNS0_10ParserInfoEPhjS4_+0x618>
   66674:       00000000        .inst   0x00000000 ; undefined








0000000000000000 <_ZN4hgrm5spdif31SpdifPlayerServiceDtsDecHandler12doDtsProcessEPNS0_10ParserInfoEPhjS4_>:
   0:   d103c3ff        sub     sp, sp, #0xf0
   4:   a9047bfd        stp     x29, x30, [sp, #64]
   8:   910103fd        add     x29, sp, #0x40
   c:   f9002bf3        str     x19, [sp, #80]
  10:   90000013        adrp    x19, 0 <__stack_chk_guard>
  14:   f90037f6        str     x22, [sp, #104]
  18:   aa0103f6        mov     x22, x1
  1c:   f9400261        ldr     x1, [x19]
  20:   f90043f9        str     x25, [sp, #128]
  24:   aa0203f9        mov     x25, x2
  28:   f9400022        ldr     x2, [x1]
  2c:   f90057a2        str     x2, [x29, #168]
  30:   d2800002        mov     x2, #0x0                        // #0
  34:   b4002424        cbz     x4, 4b8 <_ZN4hgrm5spdif31SpdifPlayerServiceDtsDecHandler12doDtsProcessEPNS0_10ParserInfoEPhjS4_+0x4b8>
  38:   a901d7b4        stp     x20, x21, [x29, #24]
  3c:   90000015        adrp    x21, 0 <__pthread_key_create>
  40:   a90363b7        stp     x23, x24, [x29, #48]
  44:   91032014        add     x20, x0, #0xc8
  48:   f94002a1        ldr     x1, [x21]
  4c:   2a0303f8        mov     w24, w3
  50:   a904efba        stp     x26, x27, [x29, #72]
  54:   9100a2d7        add     x23, x22, #0x28
  58:   f9002fbc        str     x28, [x29, #88]
  5c:   aa0003fa        mov     x26, x0
  60:   b900a7bf        str     wzr, [x29, #164]
  64:   aa0403fc        mov     x28, x4
  68:   b4000541        cbz     x1, 110 <_ZN4hgrm5spdif31SpdifPlayerServiceDtsDecHandler12doDtsProcessEPNS0_10ParserInfoEPhjS4_+0x110>
  6c:   aa1403e0        mov     x0, x20
  70:   94000000        bl      0 <pthread_mutex_lock>
  74:   35003d80        cbnz    w0, 824 <_ZN4hgrm5spdif31SpdifPlayerServiceDtsDecHandler12doDtsProcessEPNS0_10ParserInfoEPhjS4_+0x824>
  78:   b940c35b        ldr     w27, [x26, #192]
  7c:   aa1403e0        mov     x0, x20
  80:   94000000        bl      0 <pthread_mutex_unlock>
  84:   71000f7f        cmp     w27, #0x3
  88:   54000740        b.eq    170 <_ZN4hgrm5spdif31SpdifPlayerServiceDtsDecHandler12doDtsProcessEPNS0_10ParserInfoEPhjS4_+0x170>  // b.none
  8c:   7100177f        cmp     w27, #0x5
  90:   54000700        b.eq    170 <_ZN4hgrm5spdif31SpdifPlayerServiceDtsDecHandler12doDtsProcessEPNS0_10ParserInfoEPhjS4_+0x170>  // b.none
  94:   7100077f        cmp     w27, #0x1
  98:   54001580        b.eq    348 <_ZN4hgrm5spdif31SpdifPlayerServiceDtsDecHandler12doDtsProcessEPNS0_10ParserInfoEPhjS4_+0x348>  // b.none
  9c:   2a1b03e6        mov     w6, w27
  a0:   90000005        adrp    x5, 0 <_ZN4hgrm5spdif31SpdifPlayerServiceDtsDecHandler12doDtsProcessEPNS0_10ParserInfoEPhjS4_>
  a4:   90000004        adrp    x4, 0 <_ZN4hgrm5spdif31SpdifPlayerServiceDtsDecHandler12doDtsProcessEPNS0_10ParserInfoEPhjS4_>
  a8:   90000003        adrp    x3, 0 <_ZN4hgrm5spdif31SpdifPlayerServiceDtsDecHandler12doDtsProcessEPNS0_10ParserInfoEPhjS4_>
  ac:   90000001        adrp    x1, 0 <_ZN4hgrm5spdif31SpdifPlayerServiceDtsDecHandler12doDtsProcessEPNS0_10ParserInfoEPhjS4_>
  b0:   910000a5        add     x5, x5, #0x0
  b4:   91000084        add     x4, x4, #0x0
  b8:   91000063        add     x3, x3, #0x0
  bc:   52803362        mov     w2, #0x19b                      // #411
  c0:   91000021        add     x1, x1, #0x0
  c4:   52800060        mov     w0, #0x3                        // #3
  c8:   94000000        bl      0 <_ZN3pst3log5PrintENS0_11log_level_tEPKciS3_PKNS0_9LogModuleES3_z>
  cc:   a941d7b4        ldp     x20, x21, [x29, #24]
  d0:   52800059        mov     w25, #0x2                       // #2
  d4:   a94363b7        ldp     x23, x24, [x29, #48]
  d8:   a944efba        ldp     x26, x27, [x29, #72]
  dc:   f9402fbc        ldr     x28, [x29, #88]
  e0:   f9400273        ldr     x19, [x19]
  e4:   2a1903e0        mov     w0, w25
  e8:   f94057a2        ldr     x2, [x29, #168]
  ec:   f9400261        ldr     x1, [x19]
  f0:   ca010041        eor     x1, x2, x1
  f4:   b50038e1        cbnz    x1, 810 <_ZN4hgrm5spdif31SpdifPlayerServiceDtsDecHandler12doDtsProcessEPNS0_10ParserInfoEPhjS4_+0x810>
  f8:   a9447bfd        ldp     x29, x30, [sp, #64]
  fc:   f9402bf3        ldr     x19, [sp, #80]
 100:   f94037f6        ldr     x22, [sp, #104]
 104:   f94043f9        ldr     x25, [sp, #128]
 108:   9103c3ff        add     sp, sp, #0xf0
 10c:   d65f03c0        ret
 110:   b940c01b        ldr     w27, [x0, #192]
 114:   71000f7f        cmp     w27, #0x3
 118:   540002c0        b.eq    170 <_ZN4hgrm5spdif31SpdifPlayerServiceDtsDecHandler12doDtsProcessEPNS0_10ParserInfoEPhjS4_+0x170>  // b.none
 11c:   7100177f        cmp     w27, #0x5
 120:   54000280        b.eq    170 <_ZN4hgrm5spdif31SpdifPlayerServiceDtsDecHandler12doDtsProcessEPNS0_10ParserInfoEPhjS4_+0x170>  // b.none
 124:   7100077f        cmp     w27, #0x1
 128:   54fffba1        b.ne    9c <_ZN4hgrm5spdif31SpdifPlayerServiceDtsDecHandler12doDtsProcessEPNS0_10ParserInfoEPhjS4_+0x9c>  // b.any
 12c:   94000000        bl      0 <_ZN4hgrm5spdif21SpdifPlayerPacketBase9GetUnreadEv>
 130:   aa0003e1        mov     x1, x0
 134:   b5001e20        cbnz    x0, 4f8 <_ZN4hgrm5spdif31SpdifPlayerServiceDtsDecHandler12doDtsProcessEPNS0_10ParserInfoEPhjS4_+0x4f8>
 138:   52800040        mov     w0, #0x2                        // #2
 13c:   b900c340        str     w0, [x26, #192]
 140:   aa1703e1        mov     x1, x23
 144:   aa1a03e0        mov     x0, x26
 148:   94000000        bl      0 <_ZN4hgrm5spdif31SpdifPlayerServiceDtsDecHandler12doDtsProcessEPNS0_10ParserInfoEPhjS4_>
 14c:   2a0003f9        mov     w25, w0
 150:   350016c0        cbnz    w0, 428 <_ZN4hgrm5spdif31SpdifPlayerServiceDtsDecHandler12doDtsProcessEPNS0_10ParserInfoEPhjS4_+0x428>
 154:   52800060        mov     w0, #0x3                        // #3
 158:   b900c340        str     w0, [x26, #192]
 15c:   a941d7b4        ldp     x20, x21, [x29, #24]
 160:   a94363b7        ldp     x23, x24, [x29, #48]
 164:   a944efba        ldp     x26, x27, [x29, #72]
 168:   f9402fbc        ldr     x28, [x29, #88]
 16c:   17ffffdd        b       e0 <_ZN4hgrm5spdif31SpdifPlayerServiceDtsDecHandler12doDtsProcessEPNS0_10ParserInfoEPhjS4_+0xe0>
 170:   aa1903e2        mov     x2, x25
 174:   9105c346        add     x6, x26, #0x170
 178:   910293a5        add     x5, x29, #0xa4
 17c:   aa1c03e4        mov     x4, x28
 180:   2a1803e3        mov     w3, w24
 184:   aa1703e1        mov     x1, x23
 188:   aa1a03e0        mov     x0, x26
 18c:   94000000        bl      0 <_ZN4hgrm5spdif31SpdifPlayerServiceDtsDecHandler12doDtsProcessEPNS0_10ParserInfoEPhjS4_>
 190:   2a0003f9        mov     w25, w0
 194:   35001120        cbnz    w0, 3b8 <_ZN4hgrm5spdif31SpdifPlayerServiceDtsDecHandler12doDtsProcessEPNS0_10ParserInfoEPhjS4_+0x3b8>
 198:   f9400342        ldr     x2, [x26]
 19c:   aa1603e1        mov     x1, x22
 1a0:   aa1a03e0        mov     x0, x26
 1a4:   f9401c42        ldr     x2, [x2, #56]
 1a8:   d63f0040        blr     x2
 1ac:   2a0003f9        mov     w25, w0
 1b0:   35001b80        cbnz    w0, 520 <_ZN4hgrm5spdif31SpdifPlayerServiceDtsDecHandler12doDtsProcessEPNS0_10ParserInfoEPhjS4_+0x520>
 1b4:   3944d340        ldrb    w0, [x26, #308]
 1b8:   34001cc0        cbz     w0, 550 <_ZN4hgrm5spdif31SpdifPlayerServiceDtsDecHandler12doDtsProcessEPNS0_10ParserInfoEPhjS4_+0x550>
 1bc:   b940a7a3        ldr     w3, [x29, #164]
 1c0:   34000ae3        cbz     w3, 31c <_ZN4hgrm5spdif31SpdifPlayerServiceDtsDecHandler12doDtsProcessEPNS0_10ParserInfoEPhjS4_+0x31c>
 1c4:   3946c347        ldrb    w7, [x26, #432]
 1c8:   52800020        mov     w0, #0x1                        // #1
 1cc:   b9000bff        str     wzr, [sp, #8]
 1d0:   90000008        adrp    x8, 0 <_ZN4hgrm5spdif31SpdifPlayerServiceDtsDecHandler12doDtsProcessEPNS0_10ParserInfoEPhjS4_>
 1d4:   b90003e0        str     w0, [sp]
 1d8:   4a0000f4        eor     w20, w7, w0
 1dc:   90000001        adrp    x1, 0 <_ZN4hgrm5spdif31SpdifPlayerServiceDtsDecHandler12doDtsProcessEPNS0_10ParserInfoEPhjS4_>
 1e0:   90000000        adrp    x0, 0 <_ZN4hgrm5spdif31SpdifPlayerServiceDtsDecHandler12doDtsProcessEPNS0_10ParserInfoEPhjS4_>
 1e4:   91000023        add     x3, x1, #0x0
 1e8:   a90887a8        stp     x8, x1, [x29, #136]
 1ec:   91000004        add     x4, x0, #0x0
 1f0:   b9400af5        ldr     w21, [x23, #8]
 1f4:   b941a35b        ldr     w27, [x26, #416]
 1f8:   90000005        adrp    x5, 0 <_ZN4hgrm5spdif31SpdifPlayerServiceDtsDecHandler12doDtsProcessEPNS0_10ParserInfoEPhjS4_>
 1fc:   f9004fa0        str     x0, [x29, #152]
 200:   2a1403e6        mov     w6, w20
 204:   52800060        mov     w0, #0x3                        // #3
 208:   910000a5        add     x5, x5, #0x0
 20c:   52803822        mov     w2, #0x1c1                      // #449
 210:   91000101        add     x1, x8, #0x0
 214:   b9418759        ldr     w25, [x26, #388]
 218:   b9418b57        ldr     w23, [x26, #392]
 21c:   b9419f58        ldr     w24, [x26, #412]
 220:   94000000        bl      0 <_ZN3pst3log5PrintENS0_11log_level_tEPKciS3_PKNS0_9LogModuleES3_z>
 224:   b9412740        ldr     w0, [x26, #292]
 228:   6b1b001f        cmp     w0, w27
 22c:   540000c0        b.eq    244 <_ZN4hgrm5spdif31SpdifPlayerServiceDtsDecHandler12doDtsProcessEPNS0_10ParserInfoEPhjS4_+0x244>  // b.none
 230:   f9408340        ldr     x0, [x26, #256]
 234:   b4000060        cbz     x0, 240 <_ZN4hgrm5spdif31SpdifPlayerServiceDtsDecHandler12doDtsProcessEPNS0_10ParserInfoEPhjS4_+0x240>
 238:   2a1b03e1        mov     w1, w27
 23c:   94000000        bl      0 <_ZN4hgrm5spdif22SpdifPlayerServiceCore19NotifyDtsAnalogGainEi>
 240:   b901275b        str     w27, [x26, #292]
 244:   b9413341        ldr     w1, [x26, #304]
 248:   b941a740        ldr     w0, [x26, #420]
 24c:   6b00003f        cmp     w1, w0
 250:   540000c0        b.eq    268 <_ZN4hgrm5spdif31SpdifPlayerServiceDtsDecHandler12doDtsProcessEPNS0_10ParserInfoEPhjS4_+0x268>  // b.none
 254:   f9408341        ldr     x1, [x26, #256]
 258:   b4000061        cbz     x1, 264 <_ZN4hgrm5spdif31SpdifPlayerServiceDtsDecHandler12doDtsProcessEPNS0_10ParserInfoEPhjS4_+0x264>
 25c:   b9042c20        str     w0, [x1, #1068]
 260:   b941a740        ldr     w0, [x26, #420]
 264:   b9013340        str     w0, [x26, #304]
 268:   b9411746        ldr     w6, [x26, #276]
 26c:   6b1500df        cmp     w6, w21
 270:   54002640        b.eq    738 <_ZN4hgrm5spdif31SpdifPlayerServiceDtsDecHandler12doDtsProcessEPNS0_10ParserInfoEPhjS4_+0x738>  // b.none
 274:   f9408340        ldr     x0, [x26, #256]
 278:   b4000480        cbz     x0, 308 <_ZN4hgrm5spdif31SpdifPlayerServiceDtsDecHandler12doDtsProcessEPNS0_10ParserInfoEPhjS4_+0x308>
 27c:   b9411b40        ldr     w0, [x26, #280]
 280:   2a1503e7        mov     w7, w21
 284:   3944b343        ldrb    w3, [x26, #300]
 288:   90000005        adrp    x5, 0 <_ZN4hgrm5spdif31SpdifPlayerServiceDtsDecHandler12doDtsProcessEPNS0_10ParserInfoEPhjS4_>
 28c:   b9411f41        ldr     w1, [x26, #284]
 290:   910000a5        add     x5, x5, #0x0
 294:   b9412342        ldr     w2, [x26, #288]
 298:   b90003e0        str     w0, [sp]
 29c:   f9404fa0        ldr     x0, [x29, #152]
 2a0:   b90013e1        str     w1, [sp, #16]
 2a4:   91000004        add     x4, x0, #0x0
 2a8:   f9404ba0        ldr     x0, [x29, #144]
 2ac:   b90023e2        str     w2, [sp, #32]
 2b0:   52803ac2        mov     w2, #0x1d6                      // #470
 2b4:   b90033e3        str     w3, [sp, #48]
 2b8:   91000003        add     x3, x0, #0x0
 2bc:   b9000bf7        str     w23, [sp, #8]
 2c0:   f94047a0        ldr     x0, [x29, #136]
 2c4:   b9001bf8        str     w24, [sp, #24]
 2c8:   b9002bf9        str     w25, [sp, #40]
 2cc:   91000001        add     x1, x0, #0x0
 2d0:   b9003bf4        str     w20, [sp, #56]
 2d4:   52800060        mov     w0, #0x3                        // #3
 2d8:   94000000        bl      0 <_ZN3pst3log5PrintENS0_11log_level_tEPKciS3_PKNS0_9LogModuleES3_z>
 2dc:   f9408340        ldr     x0, [x26, #256]
 2e0:   91063741        add     x1, x26, #0x18d
 2e4:   f90003e1        str     x1, [sp]
 2e8:   52800007        mov     w7, #0x0                        // #0
 2ec:   2a1403e6        mov     w6, w20
 2f0:   52800005        mov     w5, #0x0                        // #0
 2f4:   2a1803e4        mov     w4, w24
 2f8:   2a1703e3        mov     w3, w23
 2fc:   2a1903e2        mov     w2, w25
 300:   2a1503e1        mov     w1, w21
 304:   94000000        bl      0 <_ZN4hgrm5spdif22SpdifPlayerServiceCore16NotifyUpdateInfoENS0_10FormatTypeEijjbbbPh>
 308:   91040340        add     x0, x26, #0x100
 30c:   3904b354        strb    w20, [x26, #300]
 310:   b940a7a3        ldr     w3, [x29, #164]
 314:   2902dc15        stp     w21, w23, [x0, #20]
 318:   2903e418        stp     w24, w25, [x0, #28]
 31c:   aa1c03e2        mov     x2, x28
 320:   aa1a03e0        mov     x0, x26
 324:   52800004        mov     w4, #0x0                        // #0
 328:   aa1603e1        mov     x1, x22
 32c:   94000000        bl      0 <_ZN4hgrm5spdif31SpdifPlayerServiceDtsDecHandler12doDtsProcessEPNS0_10ParserInfoEPhjS4_>
 330:   f9402fbc        ldr     x28, [x29, #88]
 334:   2a0003f9        mov     w25, w0
 338:   a941d7b4        ldp     x20, x21, [x29, #24]
 33c:   a94363b7        ldp     x23, x24, [x29, #48]
 340:   a944efba        ldp     x26, x27, [x29, #72]
 344:   17ffff67        b       e0 <_ZN4hgrm5spdif31SpdifPlayerServiceDtsDecHandler12doDtsProcessEPNS0_10ParserInfoEPhjS4_+0xe0>
 348:   aa1403e0        mov     x0, x20
 34c:   94000000        bl      0 <pthread_mutex_lock>
 350:   350026a0        cbnz    w0, 824 <_ZN4hgrm5spdif31SpdifPlayerServiceDtsDecHandler12doDtsProcessEPNS0_10ParserInfoEPhjS4_+0x824>
 354:   aa1a03e0        mov     x0, x26
 358:   94000000        bl      0 <_ZN4hgrm5spdif21SpdifPlayerPacketBase9GetUnreadEv>
 35c:   aa0003e1        mov     x1, x0
 360:   b5000cc0        cbnz    x0, 4f8 <_ZN4hgrm5spdif31SpdifPlayerServiceDtsDecHandler12doDtsProcessEPNS0_10ParserInfoEPhjS4_+0x4f8>
 364:   52800040        mov     w0, #0x2                        // #2
 368:   b900c340        str     w0, [x26, #192]
 36c:   aa1403e0        mov     x0, x20
 370:   94000000        bl      0 <pthread_mutex_unlock>
 374:   aa1703e1        mov     x1, x23
 378:   aa1a03e0        mov     x0, x26
 37c:   94000000        bl      0 <_ZN4hgrm5spdif31SpdifPlayerServiceDtsDecHandler12doDtsProcessEPNS0_10ParserInfoEPhjS4_>
 380:   2a0003f9        mov     w25, w0
 384:   35000520        cbnz    w0, 428 <_ZN4hgrm5spdif31SpdifPlayerServiceDtsDecHandler12doDtsProcessEPNS0_10ParserInfoEPhjS4_+0x428>
 388:   aa1403e0        mov     x0, x20
 38c:   94000000        bl      0 <pthread_mutex_lock>
 390:   350024a0        cbnz    w0, 824 <_ZN4hgrm5spdif31SpdifPlayerServiceDtsDecHandler12doDtsProcessEPNS0_10ParserInfoEPhjS4_+0x824>
 394:   52800060        mov     w0, #0x3                        // #3
 398:   b900c340        str     w0, [x26, #192]
 39c:   aa1403e0        mov     x0, x20
 3a0:   94000000        bl      0 <pthread_mutex_unlock>
 3a4:   f9402fbc        ldr     x28, [x29, #88]
 3a8:   a941d7b4        ldp     x20, x21, [x29, #24]
 3ac:   a94363b7        ldp     x23, x24, [x29, #48]
 3b0:   a944efba        ldp     x26, x27, [x29, #72]
 3b4:   17ffff4b        b       e0 <_ZN4hgrm5spdif31SpdifPlayerServiceDtsDecHandler12doDtsProcessEPNS0_10ParserInfoEPhjS4_+0xe0>
 3b8:   90000000        adrp    x0, 0 <_ZN4hgrm5spdif31SpdifPlayerServiceDtsDecHandler12doDtsProcessEPNS0_10ParserInfoEPhjS4_>
 3bc:   91000004        add     x4, x0, #0x0
 3c0:   f9004fa0        str     x0, [x29, #152]
 3c4:   90000000        adrp    x0, 0 <_ZN4hgrm5spdif31SpdifPlayerServiceDtsDecHandler12doDtsProcessEPNS0_10ParserInfoEPhjS4_>
 3c8:   90000001        adrp    x1, 0 <_ZN4hgrm5spdif31SpdifPlayerServiceDtsDecHandler12doDtsProcessEPNS0_10ParserInfoEPhjS4_>
 3cc:   91000003        add     x3, x0, #0x0
 3d0:   f9004ba0        str     x0, [x29, #144]
 3d4:   91000020        add     x0, x1, #0x0
 3d8:   f90047a1        str     x1, [x29, #136]
 3dc:   9000001c        adrp    x28, 0 <_ZN4hgrm5spdif31SpdifPlayerServiceDtsDecHandler12doDtsProcessEPNS0_10ParserInfoEPhjS4_>
 3e0:   aa0003e1        mov     x1, x0
 3e4:   91000385        add     x5, x28, #0x0
 3e8:   f90037a0        str     x0, [x29, #104]
 3ec:   90000006        adrp    x6, 0 <_ZN4hgrm5spdif31SpdifPlayerServiceDtsDecHandler12doDtsProcessEPNS0_10ParserInfoEPhjS4_>
 3f0:   52802d82        mov     w2, #0x16c                      // #364
 3f4:   910000c6        add     x6, x6, #0x0
 3f8:   a90797a4        stp     x4, x5, [x29, #120]
 3fc:   52800060        mov     w0, #0x3                        // #3
 400:   f9003ba3        str     x3, [x29, #112]
 404:   94000000        bl      0 <_ZN3pst3log5PrintENS0_11log_level_tEPKciS3_PKNS0_9LogModuleES3_z>
 408:   71001f3f        cmp     w25, #0x7
 40c:   54000d60        b.eq    5b8 <_ZN4hgrm5spdif31SpdifPlayerServiceDtsDecHandler12doDtsProcessEPNS0_10ParserInfoEPhjS4_+0x5b8>  // b.none
 410:   a941d7b4        ldp     x20, x21, [x29, #24]
 414:   a94363b7        ldp     x23, x24, [x29, #48]
 418:   a944efba        ldp     x26, x27, [x29, #72]
 41c:   f9402fbc        ldr     x28, [x29, #88]
 420:   17ffff30        b       e0 <_ZN4hgrm5spdif31SpdifPlayerServiceDtsDecHandler12doDtsProcessEPNS0_10ParserInfoEPhjS4_+0xe0>
 424:   d503201f        nop
 428:   90000017        adrp    x23, 0 <_ZN4hgrm5spdif31SpdifPlayerServiceDtsDecHandler12doDtsProcessEPNS0_10ParserInfoEPhjS4_>
 42c:   90000016        adrp    x22, 0 <_ZN4hgrm5spdif31SpdifPlayerServiceDtsDecHandler12doDtsProcessEPNS0_10ParserInfoEPhjS4_>
 430:   910002f7        add     x23, x23, #0x0
 434:   910002d6        add     x22, x22, #0x0
 438:   90000015        adrp    x21, 0 <_ZN4hgrm5spdif31SpdifPlayerServiceDtsDecHandler12doDtsProcessEPNS0_10ParserInfoEPhjS4_>
 43c:   910002b5        add     x21, x21, #0x0
 440:   90000006        adrp    x6, 0 <_ZN4hgrm5spdif31SpdifPlayerServiceDtsDecHandler12doDtsProcessEPNS0_10ParserInfoEPhjS4_>
 444:   aa1703e5        mov     x5, x23
 448:   910000c6        add     x6, x6, #0x0
 44c:   aa1603e4        mov     x4, x22
 450:   aa1503e3        mov     x3, x21
 454:   90000014        adrp    x20, 0 <_ZN4hgrm5spdif31SpdifPlayerServiceDtsDecHandler12doDtsProcessEPNS0_10ParserInfoEPhjS4_>
 458:   52802b82        mov     w2, #0x15c                      // #348
 45c:   91000294        add     x20, x20, #0x0
 460:   aa1403e1        mov     x1, x20
 464:   52800060        mov     w0, #0x3                        // #3
 468:   94000000        bl      0 <_ZN3pst3log5PrintENS0_11log_level_tEPKciS3_PKNS0_9LogModuleES3_z>
 46c:   52800001        mov     w1, #0x0                        // #0
 470:   aa1a03e0        mov     x0, x26
 474:   94000000        bl      0 <_ZN4hgrm5spdif31SpdifPlayerServiceDtsDecHandler12doDtsProcessEPNS0_10ParserInfoEPhjS4_>
 478:   34fffcc0        cbz     w0, 410 <_ZN4hgrm5spdif31SpdifPlayerServiceDtsDecHandler12doDtsProcessEPNS0_10ParserInfoEPhjS4_+0x410>
 47c:   90000006        adrp    x6, 0 <_ZN4hgrm5spdif31SpdifPlayerServiceDtsDecHandler12doDtsProcessEPNS0_10ParserInfoEPhjS4_>
 480:   aa1703e5        mov     x5, x23
 484:   910000c6        add     x6, x6, #0x0
 488:   aa1603e4        mov     x4, x22
 48c:   aa1503e3        mov     x3, x21
 490:   aa1403e1        mov     x1, x20
 494:   52802be2        mov     w2, #0x15f                      // #351
 498:   52800060        mov     w0, #0x3                        // #3
 49c:   94000000        bl      0 <_ZN3pst3log5PrintENS0_11log_level_tEPKciS3_PKNS0_9LogModuleES3_z>
 4a0:   a941d7b4        ldp     x20, x21, [x29, #24]
 4a4:   a94363b7        ldp     x23, x24, [x29, #48]
 4a8:   a944efba        ldp     x26, x27, [x29, #72]
 4ac:   f9402fbc        ldr     x28, [x29, #88]
 4b0:   17ffff0c        b       e0 <_ZN4hgrm5spdif31SpdifPlayerServiceDtsDecHandler12doDtsProcessEPNS0_10ParserInfoEPhjS4_+0xe0>
 4b4:   d503201f        nop
 4b8:   90000006        adrp    x6, 0 <_ZN4hgrm5spdif31SpdifPlayerServiceDtsDecHandler12doDtsProcessEPNS0_10ParserInfoEPhjS4_>
 4bc:   90000005        adrp    x5, 0 <_ZN4hgrm5spdif31SpdifPlayerServiceDtsDecHandler12doDtsProcessEPNS0_10ParserInfoEPhjS4_>
 4c0:   90000004        adrp    x4, 0 <_ZN4hgrm5spdif31SpdifPlayerServiceDtsDecHandler12doDtsProcessEPNS0_10ParserInfoEPhjS4_>
 4c4:   90000003        adrp    x3, 0 <_ZN4hgrm5spdif31SpdifPlayerServiceDtsDecHandler12doDtsProcessEPNS0_10ParserInfoEPhjS4_>
 4c8:   90000001        adrp    x1, 0 <_ZN4hgrm5spdif31SpdifPlayerServiceDtsDecHandler12doDtsProcessEPNS0_10ParserInfoEPhjS4_>
 4cc:   910000c6        add     x6, x6, #0x0
 4d0:   910000a5        add     x5, x5, #0x0
 4d4:   91000084        add     x4, x4, #0x0
 4d8:   91000063        add     x3, x3, #0x0
 4dc:   52802862        mov     w2, #0x143                      // #323
 4e0:   91000021        add     x1, x1, #0x0
 4e4:   52800060        mov     w0, #0x3                        // #3
 4e8:   52800059        mov     w25, #0x2                       // #2
 4ec:   94000000        bl      0 <_ZN3pst3log5PrintENS0_11log_level_tEPKciS3_PKNS0_9LogModuleES3_z>
 4f0:   17fffefc        b       e0 <_ZN4hgrm5spdif31SpdifPlayerServiceDtsDecHandler12doDtsProcessEPNS0_10ParserInfoEPhjS4_+0xe0>
 4f4:   d503201f        nop
 4f8:   b941d742        ldr     w2, [x26, #468]
 4fc:   aa1a03e0        mov     x0, x26
 500:   0b010041        add     w1, w2, w1
 504:   b901d741        str     w1, [x26, #468]
 508:   94000000        bl      0 <_ZN4hgrm5spdif21SpdifPlayerPacketBase11ClearUnreadEv>
 50c:   f94002b5        ldr     x21, [x21]
 510:   52800040        mov     w0, #0x2                        // #2
 514:   b900c340        str     w0, [x26, #192]
 518:   b4ffe155        cbz     x21, 140 <_ZN4hgrm5spdif31SpdifPlayerServiceDtsDecHandler12doDtsProcessEPNS0_10ParserInfoEPhjS4_+0x140>
 51c:   17ffff94        b       36c <_ZN4hgrm5spdif31SpdifPlayerServiceDtsDecHandler12doDtsProcessEPNS0_10ParserInfoEPhjS4_+0x36c>
 520:   90000006        adrp    x6, 0 <_ZN4hgrm5spdif31SpdifPlayerServiceDtsDecHandler12doDtsProcessEPNS0_10ParserInfoEPhjS4_>
 524:   90000005        adrp    x5, 0 <_ZN4hgrm5spdif31SpdifPlayerServiceDtsDecHandler12doDtsProcessEPNS0_10ParserInfoEPhjS4_>
 528:   90000004        adrp    x4, 0 <_ZN4hgrm5spdif31SpdifPlayerServiceDtsDecHandler12doDtsProcessEPNS0_10ParserInfoEPhjS4_>
 52c:   90000003        adrp    x3, 0 <_ZN4hgrm5spdif31SpdifPlayerServiceDtsDecHandler12doDtsProcessEPNS0_10ParserInfoEPhjS4_>
 530:   90000001        adrp    x1, 0 <_ZN4hgrm5spdif31SpdifPlayerServiceDtsDecHandler12doDtsProcessEPNS0_10ParserInfoEPhjS4_>
 534:   910000c6        add     x6, x6, #0x0
 538:   910000a5        add     x5, x5, #0x0
 53c:   91000084        add     x4, x4, #0x0
 540:   91000063        add     x3, x3, #0x0
 544:   528034c2        mov     w2, #0x1a6                      // #422
 548:   91000021        add     x1, x1, #0x0
 54c:   17ffffd3        b       498 <_ZN4hgrm5spdif31SpdifPlayerServiceDtsDecHandler12doDtsProcessEPNS0_10ParserInfoEPhjS4_+0x498>
 550:   f94002b5        ldr     x21, [x21]
 554:   b40009f5        cbz     x21, 690 <_ZN4hgrm5spdif31SpdifPlayerServiceDtsDecHandler12doDtsProcessEPNS0_10ParserInfoEPhjS4_+0x690>
 558:   aa1403e0        mov     x0, x20
 55c:   94000000        bl      0 <pthread_mutex_lock>
 560:   35001620        cbnz    w0, 824 <_ZN4hgrm5spdif31SpdifPlayerServiceDtsDecHandler12doDtsProcessEPNS0_10ParserInfoEPhjS4_+0x824>
 564:   b940c355        ldr     w21, [x26, #192]
 568:   aa1403e0        mov     x0, x20
 56c:   94000000        bl      0 <pthread_mutex_unlock>
 570:   710012bf        cmp     w21, #0x4
 574:   54fff4e1        b.ne    410 <_ZN4hgrm5spdif31SpdifPlayerServiceDtsDecHandler12doDtsProcessEPNS0_10ParserInfoEPhjS4_+0x410>  // b.any
 578:   aa1403e0        mov     x0, x20
 57c:   94000000        bl      0 <pthread_mutex_lock>
 580:   35001520        cbnz    w0, 824 <_ZN4hgrm5spdif31SpdifPlayerServiceDtsDecHandler12doDtsProcessEPNS0_10ParserInfoEPhjS4_+0x824>
 584:   528000a0        mov     w0, #0x5                        // #5
 588:   b901db55        str     w21, [x26, #472]
 58c:   b900c340        str     w0, [x26, #192]
 590:   aa1403e0        mov     x0, x20
 594:   94000000        bl      0 <pthread_mutex_unlock>
 598:   52800020        mov     w0, #0x1                        // #1
 59c:   3904d340        strb    w0, [x26, #308]
 5a0:   a941d7b4        ldp     x20, x21, [x29, #24]
 5a4:   a94363b7        ldp     x23, x24, [x29, #48]
 5a8:   a944efba        ldp     x26, x27, [x29, #72]
 5ac:   f9402fbc        ldr     x28, [x29, #88]
 5b0:   17fffecc        b       e0 <_ZN4hgrm5spdif31SpdifPlayerServiceDtsDecHandler12doDtsProcessEPNS0_10ParserInfoEPhjS4_+0xe0>
 5b4:   d503201f        nop
 5b8:   9102c3a2        add     x2, x29, #0xb0
 5bc:   52800024        mov     w4, #0x1                        // #1
 5c0:   2a1803e3        mov     w3, w24
 5c4:   aa1603e1        mov     x1, x22
 5c8:   aa1a03e0        mov     x0, x26
 5cc:   381f3c5f        strb    wzr, [x2, #-13]!
 5d0:   94000000        bl      0 <_ZN4hgrm5spdif31SpdifPlayerServiceDtsDecHandler12doDtsProcessEPNS0_10ParserInfoEPhjS4_>
 5d4:   35000fe0        cbnz    w0, 7d0 <_ZN4hgrm5spdif31SpdifPlayerServiceDtsDecHandler12doDtsProcessEPNS0_10ParserInfoEPhjS4_+0x7d0>
 5d8:   f94002a0        ldr     x0, [x21]
 5dc:   52800181        mov     w1, #0xc                        // #12
 5e0:   3904d35f        strb    wzr, [x26, #308]
 5e4:   b9013b41        str     w1, [x26, #312]
 5e8:   b4000c40        cbz     x0, 770 <_ZN4hgrm5spdif31SpdifPlayerServiceDtsDecHandler12doDtsProcessEPNS0_10ParserInfoEPhjS4_+0x770>
 5ec:   aa1403e0        mov     x0, x20
 5f0:   94000000        bl      0 <pthread_mutex_lock>
 5f4:   35001180        cbnz    w0, 824 <_ZN4hgrm5spdif31SpdifPlayerServiceDtsDecHandler12doDtsProcessEPNS0_10ParserInfoEPhjS4_+0x824>
 5f8:   aa1a03e0        mov     x0, x26
 5fc:   94000000        bl      0 <_ZN4hgrm5spdif21SpdifPlayerPacketBase9GetUnreadEv>
 600:   b4001020        cbz     x0, 804 <_ZN4hgrm5spdif31SpdifPlayerServiceDtsDecHandler12doDtsProcessEPNS0_10ParserInfoEPhjS4_+0x804>
 604:   7100177f        cmp     w27, #0x5
 608:   54000fa0        b.eq    7fc <_ZN4hgrm5spdif31SpdifPlayerServiceDtsDecHandler12doDtsProcessEPNS0_10ParserInfoEPhjS4_+0x7fc>  // b.none
 60c:   b941d741        ldr     w1, [x26, #468]
 610:   0b000020        add     w0, w1, w0
 614:   b901d740        str     w0, [x26, #468]
 618:   aa1a03e0        mov     x0, x26
 61c:   94000000        bl      0 <_ZN4hgrm5spdif21SpdifPlayerPacketBase11ClearUnreadEv>
 620:   f94002a0        ldr     x0, [x21]
 624:   52800041        mov     w1, #0x2                        // #2
 628:   b900c341        str     w1, [x26, #192]
 62c:   b4000ac0        cbz     x0, 784 <_ZN4hgrm5spdif31SpdifPlayerServiceDtsDecHandler12doDtsProcessEPNS0_10ParserInfoEPhjS4_+0x784>
 630:   aa1403e0        mov     x0, x20
 634:   94000000        bl      0 <pthread_mutex_unlock>
 638:   52800021        mov     w1, #0x1                        // #1
 63c:   aa1a03e0        mov     x0, x26
 640:   94000000        bl      0 <_ZN4hgrm5spdif31SpdifPlayerServiceDtsDecHandler12doDtsProcessEPNS0_10ParserInfoEPhjS4_>
 644:   2a0003f9        mov     w25, w0
 648:   34000340        cbz     w0, 6b0 <_ZN4hgrm5spdif31SpdifPlayerServiceDtsDecHandler12doDtsProcessEPNS0_10ParserInfoEPhjS4_+0x6b0>
 64c:   f9404fa0        ldr     x0, [x29, #152]
 650:   90000006        adrp    x6, 0 <_ZN4hgrm5spdif31SpdifPlayerServiceDtsDecHandler12doDtsProcessEPNS0_10ParserInfoEPhjS4_>
 654:   91000385        add     x5, x28, #0x0
 658:   910000c6        add     x6, x6, #0x0
 65c:   91000004        add     x4, x0, #0x0
 660:   f9404ba0        ldr     x0, [x29, #144]
 664:   52803082        mov     w2, #0x184                      // #388
 668:   91000003        add     x3, x0, #0x0
 66c:   f94047a0        ldr     x0, [x29, #136]
 670:   91000001        add     x1, x0, #0x0
 674:   52800060        mov     w0, #0x3                        // #3
 678:   94000000        bl      0 <_ZN3pst3log5PrintENS0_11log_level_tEPKciS3_PKNS0_9LogModuleES3_z>
 67c:   aa1403e0        mov     x0, x20
 680:   94000000        bl      0 <pthread_mutex_lock>
 684:   35000d00        cbnz    w0, 824 <_ZN4hgrm5spdif31SpdifPlayerServiceDtsDecHandler12doDtsProcessEPNS0_10ParserInfoEPhjS4_+0x824>
 688:   52800020        mov     w0, #0x1                        // #1
 68c:   17ffff43        b       398 <_ZN4hgrm5spdif31SpdifPlayerServiceDtsDecHandler12doDtsProcessEPNS0_10ParserInfoEPhjS4_+0x398>
 690:   b940c340        ldr     w0, [x26, #192]
 694:   7100101f        cmp     w0, #0x4
 698:   54ffebc1        b.ne    410 <_ZN4hgrm5spdif31SpdifPlayerServiceDtsDecHandler12doDtsProcessEPNS0_10ParserInfoEPhjS4_+0x410>  // b.any
 69c:   528000a1        mov     w1, #0x5                        // #5
 6a0:   b901db40        str     w0, [x26, #472]
 6a4:   b900c341        str     w1, [x26, #192]
 6a8:   17ffffbc        b       598 <_ZN4hgrm5spdif31SpdifPlayerServiceDtsDecHandler12doDtsProcessEPNS0_10ParserInfoEPhjS4_+0x598>
 6ac:   d503201f        nop
 6b0:   aa1703e1        mov     x1, x23
 6b4:   aa1a03e0        mov     x0, x26
 6b8:   94000000        bl      0 <_ZN4hgrm5spdif31SpdifPlayerServiceDtsDecHandler12doDtsProcessEPNS0_10ParserInfoEPhjS4_>
 6bc:   2a0003f9        mov     w25, w0
 6c0:   34000980        cbz     w0, 7f0 <_ZN4hgrm5spdif31SpdifPlayerServiceDtsDecHandler12doDtsProcessEPNS0_10ParserInfoEPhjS4_+0x7f0>
 6c4:   f9404fa0        ldr     x0, [x29, #152]
 6c8:   9100039c        add     x28, x28, #0x0
 6cc:   90000006        adrp    x6, 0 <_ZN4hgrm5spdif31SpdifPlayerServiceDtsDecHandler12doDtsProcessEPNS0_10ParserInfoEPhjS4_>
 6d0:   aa1c03e5        mov     x5, x28
 6d4:   91000015        add     x21, x0, #0x0
 6d8:   f9404ba0        ldr     x0, [x29, #144]
 6dc:   910000c6        add     x6, x6, #0x0
 6e0:   aa1503e4        mov     x4, x21
 6e4:   91000014        add     x20, x0, #0x0
 6e8:   f94047a0        ldr     x0, [x29, #136]
 6ec:   aa1403e3        mov     x3, x20
 6f0:   52803182        mov     w2, #0x18c                      // #396
 6f4:   9100001b        add     x27, x0, #0x0
 6f8:   52800060        mov     w0, #0x3                        // #3
 6fc:   aa1b03e1        mov     x1, x27
 700:   94000000        bl      0 <_ZN3pst3log5PrintENS0_11log_level_tEPKciS3_PKNS0_9LogModuleES3_z>
 704:   52800001        mov     w1, #0x0                        // #0
 708:   aa1a03e0        mov     x0, x26
 70c:   94000000        bl      0 <_ZN4hgrm5spdif31SpdifPlayerServiceDtsDecHandler12doDtsProcessEPNS0_10ParserInfoEPhjS4_>
 710:   34ffe800        cbz     w0, 410 <_ZN4hgrm5spdif31SpdifPlayerServiceDtsDecHandler12doDtsProcessEPNS0_10ParserInfoEPhjS4_+0x410>
 714:   90000006        adrp    x6, 0 <_ZN4hgrm5spdif31SpdifPlayerServiceDtsDecHandler12doDtsProcessEPNS0_10ParserInfoEPhjS4_>
 718:   aa1c03e5        mov     x5, x28
 71c:   910000c6        add     x6, x6, #0x0
 720:   aa1503e4        mov     x4, x21
 724:   aa1403e3        mov     x3, x20
 728:   528031e2        mov     w2, #0x18f                      // #399
 72c:   aa1b03e1        mov     x1, x27
 730:   17ffff5a        b       498 <_ZN4hgrm5spdif31SpdifPlayerServiceDtsDecHandler12doDtsProcessEPNS0_10ParserInfoEPhjS4_+0x498>
 734:   d503201f        nop
 738:   b9411b40        ldr     w0, [x26, #280]
 73c:   6b17001f        cmp     w0, w23
 740:   54ffd9a1        b.ne    274 <_ZN4hgrm5spdif31SpdifPlayerServiceDtsDecHandler12doDtsProcessEPNS0_10ParserInfoEPhjS4_+0x274>  // b.any
 744:   b9411f40        ldr     w0, [x26, #284]
 748:   6b18001f        cmp     w0, w24
 74c:   54ffd941        b.ne    274 <_ZN4hgrm5spdif31SpdifPlayerServiceDtsDecHandler12doDtsProcessEPNS0_10ParserInfoEPhjS4_+0x274>  // b.any
 750:   b9412340        ldr     w0, [x26, #288]
 754:   6b19001f        cmp     w0, w25
 758:   54ffd8e1        b.ne    274 <_ZN4hgrm5spdif31SpdifPlayerServiceDtsDecHandler12doDtsProcessEPNS0_10ParserInfoEPhjS4_+0x274>  // b.any
 75c:   3944b340        ldrb    w0, [x26, #300]
 760:   6b14001f        cmp     w0, w20
 764:   54ffd881        b.ne    274 <_ZN4hgrm5spdif31SpdifPlayerServiceDtsDecHandler12doDtsProcessEPNS0_10ParserInfoEPhjS4_+0x274>  // b.any
 768:   b940a7a3        ldr     w3, [x29, #164]
 76c:   17fffeec        b       31c <_ZN4hgrm5spdif31SpdifPlayerServiceDtsDecHandler12doDtsProcessEPNS0_10ParserInfoEPhjS4_+0x31c>
 770:   aa1a03e0        mov     x0, x26
 774:   94000000        bl      0 <_ZN4hgrm5spdif21SpdifPlayerPacketBase9GetUnreadEv>
 778:   b5000580        cbnz    x0, 828 <_ZN4hgrm5spdif31SpdifPlayerServiceDtsDecHandler12doDtsProcessEPNS0_10ParserInfoEPhjS4_+0x828>
 77c:   52800040        mov     w0, #0x2                        // #2
 780:   b900c340        str     w0, [x26, #192]
 784:   52800021        mov     w1, #0x1                        // #1
 788:   aa1a03e0        mov     x0, x26
 78c:   94000000        bl      0 <_ZN4hgrm5spdif31SpdifPlayerServiceDtsDecHandler12doDtsProcessEPNS0_10ParserInfoEPhjS4_>
 790:   2a0003f9        mov     w25, w0
 794:   34fff8e0        cbz     w0, 6b0 <_ZN4hgrm5spdif31SpdifPlayerServiceDtsDecHandler12doDtsProcessEPNS0_10ParserInfoEPhjS4_+0x6b0>
 798:   f9404fa0        ldr     x0, [x29, #152]
 79c:   90000006        adrp    x6, 0 <_ZN4hgrm5spdif31SpdifPlayerServiceDtsDecHandler12doDtsProcessEPNS0_10ParserInfoEPhjS4_>
 7a0:   91000385        add     x5, x28, #0x0
 7a4:   910000c6        add     x6, x6, #0x0
 7a8:   91000004        add     x4, x0, #0x0
 7ac:   f9404ba0        ldr     x0, [x29, #144]
 7b0:   52803082        mov     w2, #0x184                      // #388
 7b4:   91000003        add     x3, x0, #0x0
 7b8:   f94047a0        ldr     x0, [x29, #136]
 7bc:   91000001        add     x1, x0, #0x0
 7c0:   52800060        mov     w0, #0x3                        // #3
 7c4:   94000000        bl      0 <_ZN3pst3log5PrintENS0_11log_level_tEPKciS3_PKNS0_9LogModuleES3_z>
 7c8:   52800020        mov     w0, #0x1                        // #1
 7cc:   17fffe63        b       158 <_ZN4hgrm5spdif31SpdifPlayerServiceDtsDecHandler12doDtsProcessEPNS0_10ParserInfoEPhjS4_+0x158>
 7d0:   a9468fa1        ldp     x1, x3, [x29, #104]
 7d4:   90000006        adrp    x6, 0 <_ZN4hgrm5spdif31SpdifPlayerServiceDtsDecHandler12doDtsProcessEPNS0_10ParserInfoEPhjS4_>
 7d8:   a94797a4        ldp     x4, x5, [x29, #120]
 7dc:   910000c6        add     x6, x6, #0x0
 7e0:   52802e82        mov     w2, #0x174                      // #372
 7e4:   52800060        mov     w0, #0x3                        // #3
 7e8:   94000000        bl      0 <_ZN3pst3log5PrintENS0_11log_level_tEPKciS3_PKNS0_9LogModuleES3_z>
 7ec:   17ffff7b        b       5d8 <_ZN4hgrm5spdif31SpdifPlayerServiceDtsDecHandler12doDtsProcessEPNS0_10ParserInfoEPhjS4_+0x5d8>
 7f0:   f94002b5        ldr     x21, [x21]
 7f4:   b5ffdcb5        cbnz    x21, 388 <_ZN4hgrm5spdif31SpdifPlayerServiceDtsDecHandler12doDtsProcessEPNS0_10ParserInfoEPhjS4_+0x388>
 7f8:   17fffe57        b       154 <_ZN4hgrm5spdif31SpdifPlayerServiceDtsDecHandler12doDtsProcessEPNS0_10ParserInfoEPhjS4_+0x154>
 7fc:   aa1a03e0        mov     x0, x26
 800:   94000000        bl      0 <_ZN4hgrm5spdif21SpdifPlayerPacketBase11ClearUnreadEv>
 804:   52800040        mov     w0, #0x2                        // #2
 808:   b900c340        str     w0, [x26, #192]
 80c:   17ffff89        b       630 <_ZN4hgrm5spdif31SpdifPlayerServiceDtsDecHandler12doDtsProcessEPNS0_10ParserInfoEPhjS4_+0x630>
 810:   a901d7b4        stp     x20, x21, [x29, #24]
 814:   a90363b7        stp     x23, x24, [x29, #48]
 818:   a904efba        stp     x26, x27, [x29, #72]
 81c:   f9002fbc        str     x28, [x29, #88]
 820:   94000000        bl      0 <__stack_chk_fail>
 824:   94000000        bl      0 <_ZSt20__throw_system_errori>
 828:   7100177f        cmp     w27, #0x5
 82c:   54ffef01        b.ne    60c <_ZN4hgrm5spdif31SpdifPlayerServiceDtsDecHandler12doDtsProcessEPNS0_10ParserInfoEPhjS4_+0x60c>  // b.any
 830:   17ffff7a        b       618 <_ZN4hgrm5spdif31SpdifPlayerServiceDtsDecHandler12doDtsProcessEPNS0_10ParserInfoEPhjS4_+0x618>


** debug
Disassembly of section .text._ZN4hgrm5spdif31SpdifPlayerServiceDtsDecHandler12doDtsProcessEPNS0_10ParserInfoEPhjS4_:


debug ver stack


   8:   910103fd        add     x29, sp, #0x40


low
  -> sp
     local variables..
     ...
     ...   <- sp + 0x40 = fp
     x30
     x29
     ..... <- 0xd0 - (sp + 0x40 + 2x8) だと思うが calling convention 的になにかいる約束? (local variable?)
  -> initial (sp + 0xd0)
high

                                               (ここ多分だが, 変数の順番は compiler で保証されていないのでずれてるかも)
   c:   f9001fa0        str     x0, [x29, #56]  ret?
  10:   f9001ba1        str     x1, [x29, #48]  ParserInfo *pPsrInfo
  14:   f90017a2        str     x2, [x29, #40]  uint8_t *pData
  18:   b90027a3        str     w3, [x29, #36]  uint8_t size
  1c:   f9000fa4        str     x4, [x29, #24]  uint8_t *pOutBuffer




    FormatType inFormatType = pDynamicInfo->format;
    uint32_t strmSampleRate = dtsOutInfo_.strmRate;
    uint32_t inChMask       = dtsOutInfo_.in_chmask;
    int32_t analogGain      = dtsOutInfo_.analog_gain;
    int32_t bitStream       = static_cast<int32_t>(dtsOutInfo_.bitStrmType);
    bool isUpmixer          = dtsOutInfo_.is_direct_mode == false ?
                                true : false;

   be568:       f9403fa0        ldr     x0, [x29, #120]
   be56c:       b9400800        ldr     w0, [x0, #8]
   be570:       b9005fa0        str     w0, [x29, #92]
   be574:       f9401fa0        ldr     x0, [x29, #56]
   be578:       b9418800        ldr     w0, [x0, #392]
   be57c:       b90063a0        str     w0, [x29, #96]
   be580:       f9401fa0        ldr     x0, [x29, #56]
   be584:       b9419c00        ldr     w0, [x0, #412]
   be588:       b90067a0        str     w0, [x29, #100]
   be58c:       f9401fa0        ldr     x0, [x29, #56]
   be590:       b941a000        ldr     w0, [x0, #416]
   be594:       b9006ba0        str     w0, [x29, #104]
   be598:       f9401fa0        ldr     x0, [x29, #56]
   be59c:       b9418400        ldr     w0, [x0, #388]
   be5a0:       b9006fa0        str     w0, [x29, #108]
   be5a4:       f9401fa0        ldr     x0, [x29, #56]
   be5a8:       3946c000        ldrb    w0, [x0, #432]
   be5ac:       7100001f        cmp     w0, #0x0
   be5b0:       54000060        b.eq    be5bc <_ZN4hgrm5spdif31SpdifPlayerServiceDtsDecHandler12doDtsProcessEPNS0_10ParserInfoEPhjS4_+0x734>  // b.none
   be5b4:       52800000        mov     w0, #0x0                        // #0
   be5b8:       14000002        b       be5c0 <_ZN4hgrm5spdif31SpdifPlayerServiceDtsDecHandler12doDtsProcessEPNS0_10ParserInfoEPhjS4_+0x738>






00000000000bde88 <_ZN4hgrm5spdif31SpdifPlayerServiceDtsDecHandler12doDtsProcessEPNS0_10ParserInfoEPhjS4_>:
   bde88:       d10343ff        sub     sp, sp, #0xd0
   bde8c:       a9047bfd        stp     x29, x30, [sp, #64]
   bde90:       910103fd        add     x29, sp, #0x40
   bde94:       f9001fa0        str     x0, [x29, #56]
   bde98:       f9001ba1        str     x1, [x29, #48]
   bde9c:       f90017a2        str     x2, [x29, #40]
   bdea0:       b90027a3        str     w3, [x29, #36]
   bdea4:       f9000fa4        str     x4, [x29, #24]
   bdea8:       90000620        adrp    x0, 181000 <_ZN3pst8services19ISpdifPlayerService11AddListenerEPNS1_16IServiceListenerERKNSt7__cxx1112basic_stringIcSt11char_traitsIcESaIcEEE@@Base+0x118824>
   bdeac:       f946a800        ldr     x0, [x0, #3408]
   bdeb0:       f9400001        ldr     x1, [x0]
   bdeb4:       f90047a1        str     x1, [x29, #136]
   bdeb8:       d2800001        mov     x1, #0x0                        // #0
   bdebc:       f9400fa0        ldr     x0, [x29, #24]
   bdec0:       f100001f        cmp     x0, #0x0
   bdec4:       540002a1        b.ne    bdf18 <_ZN4hgrm5spdif31SpdifPlayerServiceDtsDecHandler12doDtsProcessEPNS0_10ParserInfoEPhjS4_+0x90>  // b.any
   bdec8:       900003e0        adrp    x0, 139000 <_ZN3pst3emxL20kExecuteOnMainThreadE>
   bdecc:       91340004        add     x4, x0, #0xd00
   bded0:       900003e0        adrp    x0, 139000 <_ZN3pst3emxL20kExecuteOnMainThreadE>
   bded4:       912d4003        add     x3, x0, #0xb50
   bded8:       f0000600        adrp    x0, 180000 <__frame_dummy_init_array_entry+0x48>
   bdedc:       910b2002        add     x2, x0, #0x2c8
   bdee0:       b00003e0        adrp    x0, 13a000 <_ZStL19piecewise_construct+0x538>
   bdee4:       91332001        add     x1, x0, #0xcc8
   bdee8:       900003e0        adrp    x0, 139000 <_ZN3pst3emxL20kExecuteOnMainThreadE>
   bdeec:       912be000        add     x0, x0, #0xaf8
   bdef0:       aa0403e6        mov     x6, x4
   bdef4:       aa0303e5        mov     x5, x3
   bdef8:       aa0203e4        mov     x4, x2
   bdefc:       aa0103e3        mov     x3, x1
   bdf00:       52802862        mov     w2, #0x143                      // #323
   bdf04:       aa0003e1        mov     x1, x0
   bdf08:       52800060        mov     w0, #0x3                        // #3
   bdf0c:       97fe8d19        bl      61370 <_ZN3pst3log5PrintENS0_11log_level_tEPKciS3_PKNS0_9LogModuleES3_z@plt>
   bdf10:       52800040        mov     w0, #0x2                        // #2
   bdf14:       14000251        b       be858 <_ZN4hgrm5spdif31SpdifPlayerServiceDtsDecHandler12doDtsProcessEPNS0_10ParserInfoEPhjS4_+0x9d0>
   bdf18:       b90053bf        str     wzr, [x29, #80]
   bdf1c:       f9401ba0        ldr     x0, [x29, #48]
   bdf20:       9100a000        add     x0, x0, #0x28
   bdf24:       f9003fa0        str     x0, [x29, #120]
   bdf28:       b9004fbf        str     wzr, [x29, #76]
   bdf2c:       f90043bf        str     xzr, [x29, #128]
   bdf30:       f9401fa0        ldr     x0, [x29, #56]
   bdf34:       91032000        add     x0, x0, #0xc8
   bdf38:       97fea642        bl      67840 <_ZNSt5mutex4lockEv@plt>
   bdf3c:       f9401fa0        ldr     x0, [x29, #56]
   bdf40:       b940c000        ldr     w0, [x0, #192]
   bdf44:       b90057a0        str     w0, [x29, #84]
   bdf48:       f9401fa0        ldr     x0, [x29, #56]
   bdf4c:       91032000        add     x0, x0, #0xc8
   bdf50:       97fe9d10        bl      65390 <_ZNSt5mutex6unlockEv@plt>
   bdf54:       b94027a0        ldr     w0, [x29, #36]
   bdf58:       b9005ba0        str     w0, [x29, #88]
   bdf5c:       b94057a0        ldr     w0, [x29, #84]
   bdf60:       71000c1f        cmp     w0, #0x3
   bdf64:       54000b80        b.eq    be0d4 <_ZN4hgrm5spdif31SpdifPlayerServiceDtsDecHandler12doDtsProcessEPNS0_10ParserInfoEPhjS4_+0x24c>  // b.none





   bdf68:       7100141f        cmp     w0, #0x5
   bdf6c:       54000b40        b.eq    be0d4 <_ZN4hgrm5spdif31SpdifPlayerServiceDtsDecHandler12doDtsProcessEPNS0_10ParserInfoEPhjS4_+0x24c>  // b.none
   bdf70:       7100041f        cmp     w0, #0x1
   bdf74:       54002581        b.ne    be424 <_ZN4hgrm5spdif31SpdifPlayerServiceDtsDecHandler12doDtsProcessEPNS0_10ParserInfoEPhjS4_+0x59c>  // b.any
   bdf78:       f9401fa0        ldr     x0, [x29, #56]
   bdf7c:       91032000        add     x0, x0, #0xc8
   bdf80:       97fea630        bl      67840 <_ZNSt5mutex4lockEv@plt>
   bdf84:       f9401fa0        ldr     x0, [x29, #56]
   bdf88:       97fe956e        bl      63540 <_ZN4hgrm5spdif21SpdifPlayerPacketBase9GetUnreadEv@plt>
   bdf8c:       f90043a0        str     x0, [x29, #128]
   bdf90:       f94043a0        ldr     x0, [x29, #128]
   bdf94:       f100001f        cmp     x0, #0x0
   bdf98:       54000120        b.eq    bdfbc <_ZN4hgrm5spdif31SpdifPlayerServiceDtsDecHandler12doDtsProcessEPNS0_10ParserInfoEPhjS4_+0x134>  // b.none
   bdf9c:       f9401fa0        ldr     x0, [x29, #56]
   bdfa0:       b941d400        ldr     w0, [x0, #468]
   bdfa4:       f94043a1        ldr     x1, [x29, #128]
   bdfa8:       0b010001        add     w1, w0, w1
   bdfac:       f9401fa0        ldr     x0, [x29, #56]
   bdfb0:       b901d401        str     w1, [x0, #468]
   bdfb4:       f9401fa0        ldr     x0, [x29, #56]
   bdfb8:       97fea6d2        bl      67b00 <_ZN4hgrm5spdif21SpdifPlayerPacketBase11ClearUnreadEv@plt>
   bdfbc:       f9401fa0        ldr     x0, [x29, #56]
   bdfc0:       52800041        mov     w1, #0x2                        // #2
   bdfc4:       b900c001        str     w1, [x0, #192]
   bdfc8:       f9401fa0        ldr     x0, [x29, #56]
   bdfcc:       91032000        add     x0, x0, #0xc8
   bdfd0:       97fe9cf0        bl      65390 <_ZNSt5mutex6unlockEv@plt>
   bdfd4:       f9403fa1        ldr     x1, [x29, #120]
   bdfd8:       f9401fa0        ldr     x0, [x29, #56]
   bdfdc:       97fe97e9        bl      63f80 <_ZN4hgrm5spdif31SpdifPlayerServiceDtsDecHandler7initDtsEPNS0_17ParserDynamicInfoE@plt>
   bdfe0:       b90053a0        str     w0, [x29, #80]
   bdfe4:       b94053a0        ldr     w0, [x29, #80]
   bdfe8:       7100001f        cmp     w0, #0x0
   bdfec:       540005c0        b.eq    be0a4 <_ZN4hgrm5spdif31SpdifPlayerServiceDtsDecHandler12doDtsProcessEPNS0_10ParserInfoEPhjS4_+0x21c>  // b.none
   bdff0:       900003e0        adrp    x0, 139000 <_ZN3pst3emxL20kExecuteOnMainThreadE>
   bdff4:       91308004        add     x4, x0, #0xc20
   bdff8:       900003e0        adrp    x0, 139000 <_ZN3pst3emxL20kExecuteOnMainThreadE>
   bdffc:       912d4003        add     x3, x0, #0xb50
   be000:       d0000600        adrp    x0, 180000 <__frame_dummy_init_array_entry+0x48>
   be004:       910b2002        add     x2, x0, #0x2c8
   be008:       900003e0        adrp    x0, 13a000 <_ZStL19piecewise_construct+0x538>
   be00c:       91332001        add     x1, x0, #0xcc8
   be010:       f00003c0        adrp    x0, 139000 <_ZN3pst3emxL20kExecuteOnMainThreadE>
   be014:       912be000        add     x0, x0, #0xaf8
   be018:       aa0403e6        mov     x6, x4
   be01c:       aa0303e5        mov     x5, x3
   be020:       aa0203e4        mov     x4, x2
   be024:       aa0103e3        mov     x3, x1
   be028:       52802b82        mov     w2, #0x15c                      // #348
   be02c:       aa0003e1        mov     x1, x0
   be030:       52800060        mov     w0, #0x3                        // #3
   be034:       97fe8ccf        bl      61370 <_ZN3pst3log5PrintENS0_11log_level_tEPKciS3_PKNS0_9LogModuleES3_z@plt>
   be038:       52800001        mov     w1, #0x0                        // #0
   be03c:       f9401fa0        ldr     x0, [x29, #56]
   be040:       97fe8694        bl      5fa90 <_ZN4hgrm5spdif31SpdifPlayerServiceDtsDecHandler10destroyDtsEb@plt>
   be044:       b90077a0        str     w0, [x29, #116]
   be048:       b94077a0        ldr     w0, [x29, #116]











   be04c:       7100001f        cmp     w0, #0x0
   be050:       54000260        b.eq    be09c <_ZN4hgrm5spdif31SpdifPlayerServiceDtsDecHandler12doDtsProcessEPNS0_10ParserInfoEPhjS4_+0x214>  // b.none
   be054:       f00003c0        adrp    x0, 139000 <_ZN3pst3emxL20kExecuteOnMainThreadE>
   be058:       91302004        add     x4, x0, #0xc08
   be05c:       f00003c0        adrp    x0, 139000 <_ZN3pst3emxL20kExecuteOnMainThreadE>
   be060:       912d4003        add     x3, x0, #0xb50
   be064:       d0000600        adrp    x0, 180000 <__frame_dummy_init_array_entry+0x48>
   be068:       910b2002        add     x2, x0, #0x2c8
   be06c:       900003e0        adrp    x0, 13a000 <_ZStL19piecewise_construct+0x538>
   be070:       91332001        add     x1, x0, #0xcc8
   be074:       f00003c0        adrp    x0, 139000 <_ZN3pst3emxL20kExecuteOnMainThreadE>
   be078:       912be000        add     x0, x0, #0xaf8
   be07c:       aa0403e6        mov     x6, x4
   be080:       aa0303e5        mov     x5, x3
   be084:       aa0203e4        mov     x4, x2
   be088:       aa0103e3        mov     x3, x1
   be08c:       52802be2        mov     w2, #0x15f                      // #351
   be090:       aa0003e1        mov     x1, x0
   be094:       52800060        mov     w0, #0x3                        // #3
   be098:       97fe8cb6        bl      61370 <_ZN3pst3log5PrintENS0_11log_level_tEPKciS3_PKNS0_9LogModuleES3_z@plt>
   be09c:       b94053a0        ldr     w0, [x29, #80]
   be0a0:       140001ee        b       be858 <_ZN4hgrm5spdif31SpdifPlayerServiceDtsDecHandler12doDtsProcessEPNS0_10ParserInfoEPhjS4_+0x9d0>
   be0a4:       d503201f        nop
   be0a8:       f9401fa0        ldr     x0, [x29, #56]
   be0ac:       91032000        add     x0, x0, #0xc8
   be0b0:       97fea5e4        bl      67840 <_ZNSt5mutex4lockEv@plt>
   be0b4:       f9401fa0        ldr     x0, [x29, #56]
   be0b8:       52800061        mov     w1, #0x3                        // #3
   be0bc:       b900c001        str     w1, [x0, #192]
   be0c0:       f9401fa0        ldr     x0, [x29, #56]
   be0c4:       91032000        add     x0, x0, #0xc8
   be0c8:       97fe9cb2        bl      65390 <_ZNSt5mutex6unlockEv@plt>
   be0cc:       b94053a0        ldr     w0, [x29, #80]
   be0d0:       140001e2        b       be858 <_ZN4hgrm5spdif31SpdifPlayerServiceDtsDecHandler12doDtsProcessEPNS0_10ParserInfoEPhjS4_+0x9d0>
   be0d4:       f9401fa0        ldr     x0, [x29, #56]
   be0d8:       9105c001        add     x1, x0, #0x170
   be0dc:       910133a0        add     x0, x29, #0x4c
   be0e0:       aa0103e6        mov     x6, x1
   be0e4:       aa0003e5        mov     x5, x0
   be0e8:       f9400fa4        ldr     x4, [x29, #24]
   be0ec:       b9405ba3        ldr     w3, [x29, #88]
   be0f0:       f94017a2        ldr     x2, [x29, #40]
   be0f4:       f9403fa1        ldr     x1, [x29, #120]
   be0f8:       f9401fa0        ldr     x0, [x29, #56]
   be0fc:       97fe8a55        bl      60a50 <_ZN4hgrm5spdif31SpdifPlayerServiceDtsDecHandler9decodeDtsEPNS0_17ParserDynamicInfoEPhjS4_PjPNS0_10DtsOutInfoE@plt>
   be100:       b90053a0        str     w0, [x29, #80]
   be104:       b94053a0        ldr     w0, [x29, #80]
   be108:       7100001f        cmp     w0, #0x0
   be10c:       54001700        b.eq    be3ec <_ZN4hgrm5spdif31SpdifPlayerServiceDtsDecHandler12doDtsProcessEPNS0_10ParserInfoEPhjS4_+0x564>  // b.none
   be110:       f00003c0        adrp    x0, 139000 <_ZN3pst3emxL20kExecuteOnMainThreadE>
   be114:       91344004        add     x4, x0, #0xd10
   be118:       f00003c0        adrp    x0, 139000 <_ZN3pst3emxL20kExecuteOnMainThreadE>
   be11c:       912d4003        add     x3, x0, #0xb50
   be120:       d0000600        adrp    x0, 180000 <__frame_dummy_init_array_entry+0x48>
   be124:       910b2002        add     x2, x0, #0x2c8
   be128:       900003e0        adrp    x0, 13a000 <_ZStL19piecewise_construct+0x538>
   be12c:       91332001        add     x1, x0, #0xcc8











   be130:       f00003c0        adrp    x0, 139000 <_ZN3pst3emxL20kExecuteOnMainThreadE>
   be134:       912be000        add     x0, x0, #0xaf8
   be138:       aa0403e6        mov     x6, x4
   be13c:       aa0303e5        mov     x5, x3
   be140:       aa0203e4        mov     x4, x2
   be144:       aa0103e3        mov     x3, x1
   be148:       52802d82        mov     w2, #0x16c                      // #364
   be14c:       aa0003e1        mov     x1, x0
   be150:       52800060        mov     w0, #0x3                        // #3
   be154:       97fe8c87        bl      61370 <_ZN3pst3log5PrintENS0_11log_level_tEPKciS3_PKNS0_9LogModuleES3_z@plt>
   be158:       b94053a0        ldr     w0, [x29, #80]
   be15c:       71001c1f        cmp     w0, #0x7
   be160:       54001421        b.ne    be3e4 <_ZN4hgrm5spdif31SpdifPlayerServiceDtsDecHandler12doDtsProcessEPNS0_10ParserInfoEPhjS4_+0x55c>  // b.any
   be164:       39012bbf        strb    wzr, [x29, #74]
   be168:       91012ba0        add     x0, x29, #0x4a
   be16c:       f90017a0        str     x0, [x29, #40]
   be170:       52800024        mov     w4, #0x1                        // #1
   be174:       b9405ba3        ldr     w3, [x29, #88]
   be178:       f94017a2        ldr     x2, [x29, #40]
   be17c:       f9401ba1        ldr     x1, [x29, #48]
   be180:       f9401fa0        ldr     x0, [x29, #56]
   be184:       97fe8e8b        bl      61bb0 <_ZN4hgrm5spdif31SpdifPlayerServiceDtsDecHandler16doDtsSendProcessEPNS0_10ParserInfoEPhjb@plt>
   be188:       b90053a0        str     w0, [x29, #80]
   be18c:       f90017bf        str     xzr, [x29, #40]
   be190:       b94053a0        ldr     w0, [x29, #80]
   be194:       7100001f        cmp     w0, #0x0
   be198:       54000260        b.eq    be1e4 <_ZN4hgrm5spdif31SpdifPlayerServiceDtsDecHandler12doDtsProcessEPNS0_10ParserInfoEPhjS4_+0x35c>  // b.none
   be19c:       f00003c0        adrp    x0, 139000 <_ZN3pst3emxL20kExecuteOnMainThreadE>
   be1a0:       91338004        add     x4, x0, #0xce0
   be1a4:       f00003c0        adrp    x0, 139000 <_ZN3pst3emxL20kExecuteOnMainThreadE>
   be1a8:       912d4003        add     x3, x0, #0xb50
   be1ac:       d0000600        adrp    x0, 180000 <__frame_dummy_init_array_entry+0x48>
   be1b0:       910b2002        add     x2, x0, #0x2c8
   be1b4:       900003e0        adrp    x0, 13a000 <_ZStL19piecewise_construct+0x538>
   be1b8:       91332001        add     x1, x0, #0xcc8
   be1bc:       f00003c0        adrp    x0, 139000 <_ZN3pst3emxL20kExecuteOnMainThreadE>
   be1c0:       912be000        add     x0, x0, #0xaf8
   be1c4:       aa0403e6        mov     x6, x4
   be1c8:       aa0303e5        mov     x5, x3
   be1cc:       aa0203e4        mov     x4, x2
   be1d0:       aa0103e3        mov     x3, x1
   be1d4:       52802e82        mov     w2, #0x174                      // #372
   be1d8:       aa0003e1        mov     x1, x0
   be1dc:       52800060        mov     w0, #0x3                        // #3
   be1e0:       97fe8c64        bl      61370 <_ZN3pst3log5PrintENS0_11log_level_tEPKciS3_PKNS0_9LogModuleES3_z@plt>
   be1e4:       f9401fa0        ldr     x0, [x29, #56]
   be1e8:       52800181        mov     w1, #0xc                        // #12
   be1ec:       b9013801        str     w1, [x0, #312]
   be1f0:       f9401fa0        ldr     x0, [x29, #56]
   be1f4:       3904d01f        strb    wzr, [x0, #308]
   be1f8:       f9401fa0        ldr     x0, [x29, #56]
   be1fc:       91032000        add     x0, x0, #0xc8
   be200:       97fea590        bl      67840 <_ZNSt5mutex4lockEv@plt>
   be204:       f9401fa0        ldr     x0, [x29, #56]
   be208:       97fe94ce        bl      63540 <_ZN4hgrm5spdif21SpdifPlayerPacketBase9GetUnreadEv@plt>
   be20c:       f90043a0        str     x0, [x29, #128]
   be210:       f94043a0        ldr     x0, [x29, #128]
   be214:       f100001f        cmp     x0, #0x0
   be218:       54000180        b.eq    be248 <_ZN4hgrm5spdif31SpdifPlayerServiceDtsDecHandler12doDtsProcessEPNS0_10ParserInfoEPhjS4_+0x3c0>  // b.none
   be21c:       b94057a0        ldr     w0, [x29, #84]
   be220:       7100141f        cmp     w0, #0x5
   be224:       540000e0        b.eq    be240 <_ZN4hgrm5spdif31SpdifPlayerServiceDtsDecHandler12doDtsProcessEPNS0_10ParserInfoEPhjS4_+0x3b8>  // b.none
   be228:       f9401fa0        ldr     x0, [x29, #56]
   be22c:       b941d400        ldr     w0, [x0, #468]
   be230:       f94043a1        ldr     x1, [x29, #128]
   be234:       0b010001        add     w1, w0, w1
   be238:       f9401fa0        ldr     x0, [x29, #56]
   be23c:       b901d401        str     w1, [x0, #468]
   be240:       f9401fa0        ldr     x0, [x29, #56]
   be244:       97fea62f        bl      67b00 <_ZN4hgrm5spdif21SpdifPlayerPacketBase11ClearUnreadEv@plt>
   be248:       f9401fa0        ldr     x0, [x29, #56]
   be24c:       52800041        mov     w1, #0x2                        // #2
   be250:       b900c001        str     w1, [x0, #192]
   be254:       f9401fa0        ldr     x0, [x29, #56]
   be258:       91032000        add     x0, x0, #0xc8
   be25c:       97fe9c4d        bl      65390 <_ZNSt5mutex6unlockEv@plt>
   be260:       52800021        mov     w1, #0x1                        // #1
   be264:       f9401fa0        ldr     x0, [x29, #56]
   be268:       97fe860a        bl      5fa90 <_ZN4hgrm5spdif31SpdifPlayerServiceDtsDecHandler10destroyDtsEb@plt>
   be26c:       b90053a0        str     w0, [x29, #80]
   be270:       b94053a0        ldr     w0, [x29, #80]
   be274:       7100001f        cmp     w0, #0x0
   be278:       540003c0        b.eq    be2f0 <_ZN4hgrm5spdif31SpdifPlayerServiceDtsDecHandler12doDtsProcessEPNS0_10ParserInfoEPhjS4_+0x468>  // b.none
   be27c:       f00003c0        adrp    x0, 139000 <_ZN3pst3emxL20kExecuteOnMainThreadE>
   be280:       91302004        add     x4, x0, #0xc08
   be284:       f00003c0        adrp    x0, 139000 <_ZN3pst3emxL20kExecuteOnMainThreadE>
   be288:       912d4003        add     x3, x0, #0xb50
   be28c:       d0000600        adrp    x0, 180000 <__frame_dummy_init_array_entry+0x48>
   be290:       910b2002        add     x2, x0, #0x2c8
   be294:       900003e0        adrp    x0, 13a000 <_ZStL19piecewise_construct+0x538>
   be298:       91332001        add     x1, x0, #0xcc8
   be29c:       f00003c0        adrp    x0, 139000 <_ZN3pst3emxL20kExecuteOnMainThreadE>
   be2a0:       912be000        add     x0, x0, #0xaf8
   be2a4:       aa0403e6        mov     x6, x4
   be2a8:       aa0303e5        mov     x5, x3
   be2ac:       aa0203e4        mov     x4, x2
   be2b0:       aa0103e3        mov     x3, x1
   be2b4:       52803082        mov     w2, #0x184                      // #388
   be2b8:       aa0003e1        mov     x1, x0
   be2bc:       52800060        mov     w0, #0x3                        // #3
   be2c0:       97fe8c2c        bl      61370 <_ZN3pst3log5PrintENS0_11log_level_tEPKciS3_PKNS0_9LogModuleES3_z@plt>
   be2c4:       f9401fa0        ldr     x0, [x29, #56]
   be2c8:       91032000        add     x0, x0, #0xc8
   be2cc:       97fea55d        bl      67840 <_ZNSt5mutex4lockEv@plt>
   be2d0:       f9401fa0        ldr     x0, [x29, #56]
   be2d4:       52800021        mov     w1, #0x1                        // #1
   be2d8:       b900c001        str     w1, [x0, #192]
   be2dc:       f9401fa0        ldr     x0, [x29, #56]
   be2e0:       91032000        add     x0, x0, #0xc8
   be2e4:       97fe9c2b        bl      65390 <_ZNSt5mutex6unlockEv@plt>
   be2e8:       b94053a0        ldr     w0, [x29, #80]
   be2ec:       1400015b        b       be858 <_ZN4hgrm5spdif31SpdifPlayerServiceDtsDecHandler12doDtsProcessEPNS0_10ParserInfoEPhjS4_+0x9d0>
   be2f0:       f9403fa1        ldr     x1, [x29, #120]
   be2f4:       f9401fa0        ldr     x0, [x29, #56]
   be2f8:       97fe9722        bl      63f80 <_ZN4hgrm5spdif31SpdifPlayerServiceDtsDecHandler7initDtsEPNS0_17ParserDynamicInfoE@plt>
   be2fc:       b90053a0        str     w0, [x29, #80]
   be300:       b94053a0        ldr     w0, [x29, #80]
   be304:       7100001f        cmp     w0, #0x0
   be308:       540005c0        b.eq    be3c0 <_ZN4hgrm5spdif31SpdifPlayerServiceDtsDecHandler12doDtsProcessEPNS0_10ParserInfoEPhjS4_+0x538>  // b.none
   be30c:       f00003c0        adrp    x0, 139000 <_ZN3pst3emxL20kExecuteOnMainThreadE>
   be310:       91308004        add     x4, x0, #0xc20
   be314:       f00003c0        adrp    x0, 139000 <_ZN3pst3emxL20kExecuteOnMainThreadE>
   be318:       912d4003        add     x3, x0, #0xb50
   be31c:       d0000600        adrp    x0, 180000 <__frame_dummy_init_array_entry+0x48>
   be320:       910b2002        add     x2, x0, #0x2c8
   be324:       900003e0        adrp    x0, 13a000 <_ZStL19piecewise_construct+0x538>
   be328:       91332001        add     x1, x0, #0xcc8
   be32c:       f00003c0        adrp    x0, 139000 <_ZN3pst3emxL20kExecuteOnMainThreadE>
   be330:       912be000        add     x0, x0, #0xaf8
   be334:       aa0403e6        mov     x6, x4
   be338:       aa0303e5        mov     x5, x3
   be33c:       aa0203e4        mov     x4, x2
   be340:       aa0103e3        mov     x3, x1
   be344:       52803182        mov     w2, #0x18c                      // #396
   be348:       aa0003e1        mov     x1, x0
   be34c:       52800060        mov     w0, #0x3                        // #3
   be350:       97fe8c08        bl      61370 <_ZN3pst3log5PrintENS0_11log_level_tEPKciS3_PKNS0_9LogModuleES3_z@plt>
   be354:       52800001        mov     w1, #0x0                        // #0
   be358:       f9401fa0        ldr     x0, [x29, #56]
   be35c:       97fe85cd        bl      5fa90 <_ZN4hgrm5spdif31SpdifPlayerServiceDtsDecHandler10destroyDtsEb@plt>
   be360:       b90073a0        str     w0, [x29, #112]
   be364:       b94073a0        ldr     w0, [x29, #112]
   be368:       7100001f        cmp     w0, #0x0
   be36c:       54000260        b.eq    be3b8 <_ZN4hgrm5spdif31SpdifPlayerServiceDtsDecHandler12doDtsProcessEPNS0_10ParserInfoEPhjS4_+0x530>  // b.none
   be370:       f00003c0        adrp    x0, 139000 <_ZN3pst3emxL20kExecuteOnMainThreadE>
   be374:       91302004        add     x4, x0, #0xc08
   be378:       f00003c0        adrp    x0, 139000 <_ZN3pst3emxL20kExecuteOnMainThreadE>
   be37c:       912d4003        add     x3, x0, #0xb50
   be380:       d0000600        adrp    x0, 180000 <__frame_dummy_init_array_entry+0x48>
   be384:       910b2002        add     x2, x0, #0x2c8
   be388:       900003e0        adrp    x0, 13a000 <_ZStL19piecewise_construct+0x538>
   be38c:       91332001        add     x1, x0, #0xcc8
   be390:       f00003c0        adrp    x0, 139000 <_ZN3pst3emxL20kExecuteOnMainThreadE>
   be394:       912be000        add     x0, x0, #0xaf8
   be398:       aa0403e6        mov     x6, x4
   be39c:       aa0303e5        mov     x5, x3
   be3a0:       aa0203e4        mov     x4, x2
   be3a4:       aa0103e3        mov     x3, x1
   be3a8:       528031e2        mov     w2, #0x18f                      // #399
   be3ac:       aa0003e1        mov     x1, x0
   be3b0:       52800060        mov     w0, #0x3                        // #3
   be3b4:       97fe8bef        bl      61370 <_ZN3pst3log5PrintENS0_11log_level_tEPKciS3_PKNS0_9LogModuleES3_z@plt>
   be3b8:       b94053a0        ldr     w0, [x29, #80]
   be3bc:       14000127        b       be858 <_ZN4hgrm5spdif31SpdifPlayerServiceDtsDecHandler12doDtsProcessEPNS0_10ParserInfoEPhjS4_+0x9d0>
   be3c0:       f9401fa0        ldr     x0, [x29, #56]
   be3c4:       91032000        add     x0, x0, #0xc8
   be3c8:       97fea51e        bl      67840 <_ZNSt5mutex4lockEv@plt>
   be3cc:       f9401fa0        ldr     x0, [x29, #56]
   be3d0:       52800061        mov     w1, #0x3                        // #3
   be3d4:       b900c001        str     w1, [x0, #192]
   be3d8:       f9401fa0        ldr     x0, [x29, #56]
   be3dc:       91032000        add     x0, x0, #0xc8
   be3e0:       97fe9bec        bl      65390 <_ZNSt5mutex6unlockEv@plt>
   be3e4:       b94053a0        ldr     w0, [x29, #80]
   be3e8:       1400011c        b       be858 <_ZN4hgrm5spdif31SpdifPlayerServiceDtsDecHandler12doDtsProcessEPNS0_10ParserInfoEPhjS4_+0x9d0>
   be3ec:       d503201f        nop
   be3f0:       d503201f        nop
   be3f4:       f9401fa0        ldr     x0, [x29, #56]
   be3f8:       f9400000        ldr     x0, [x0]
   be3fc:       9100e000        add     x0, x0, #0x38
   be400:       f9400002        ldr     x2, [x0]
   be404:       f9401ba1        ldr     x1, [x29, #48]
   be408:       f9401fa0        ldr     x0, [x29, #56]
   be40c:       d63f0040        blr     x2
   be410:       b90053a0        str     w0, [x29, #80]
   be414:       b94053a0        ldr     w0, [x29, #80]
   be418:       7100001f        cmp     w0, #0x0
   be41c:       54000560        b.eq    be4c8 <_ZN4hgrm5spdif31SpdifPlayerServiceDtsDecHandler12doDtsProcessEPNS0_10ParserInfoEPhjS4_+0x640>  // b.none
   be420:       14000016        b       be478 <_ZN4hgrm5spdif31SpdifPlayerServiceDtsDecHandler12doDtsProcessEPNS0_10ParserInfoEPhjS4_+0x5f0>
   be424:       b94057a4        ldr     w4, [x29, #84]
   be428:       f00003c0        adrp    x0, 139000 <_ZN3pst3emxL20kExecuteOnMainThreadE>
   be42c:       9134a003        add     x3, x0, #0xd28
   be430:       d0000600        adrp    x0, 180000 <__frame_dummy_init_array_entry+0x48>
   be434:       910b2002        add     x2, x0, #0x2c8
   be438:       900003e0        adrp    x0, 13a000 <_ZStL19piecewise_construct+0x538>
   be43c:       91332001        add     x1, x0, #0xcc8
   be440:       f00003c0        adrp    x0, 139000 <_ZN3pst3emxL20kExecuteOnMainThreadE>
   be444:       912be000        add     x0, x0, #0xaf8
   be448:       2a0403e6        mov     w6, w4
   be44c:       aa0303e5        mov     x5, x3
   be450:       aa0203e4        mov     x4, x2
   be454:       aa0103e3        mov     x3, x1
   be458:       52803362        mov     w2, #0x19b                      // #411
   be45c:       aa0003e1        mov     x1, x0
   be460:       52800060        mov     w0, #0x3                        // #3
   be464:       97fe8bc3        bl      61370 <_ZN3pst3log5PrintENS0_11log_level_tEPKciS3_PKNS0_9LogModuleES3_z@plt>
   be468:       52800040        mov     w0, #0x2                        // #2
   be46c:       b90053a0        str     w0, [x29, #80]
   be470:       b94053a0        ldr     w0, [x29, #80]
   be474:       140000f9        b       be858 <_ZN4hgrm5spdif31SpdifPlayerServiceDtsDecHandler12doDtsProcessEPNS0_10ParserInfoEPhjS4_+0x9d0>
   be478:       f00003c0        adrp    x0, 139000 <_ZN3pst3emxL20kExecuteOnMainThreadE>
   be47c:       91352004        add     x4, x0, #0xd48
   be480:       f00003c0        adrp    x0, 139000 <_ZN3pst3emxL20kExecuteOnMainThreadE>
   be484:       912d4003        add     x3, x0, #0xb50
   be488:       d0000600        adrp    x0, 180000 <__frame_dummy_init_array_entry+0x48>
   be48c:       910b2002        add     x2, x0, #0x2c8
   be490:       900003e0        adrp    x0, 13a000 <_ZStL19piecewise_construct+0x538>
   be494:       91332001        add     x1, x0, #0xcc8
   be498:       f00003c0        adrp    x0, 139000 <_ZN3pst3emxL20kExecuteOnMainThreadE>
   be49c:       912be000        add     x0, x0, #0xaf8
   be4a0:       aa0403e6        mov     x6, x4
   be4a4:       aa0303e5        mov     x5, x3
   be4a8:       aa0203e4        mov     x4, x2
   be4ac:       aa0103e3        mov     x3, x1
   be4b0:       528034c2        mov     w2, #0x1a6                      // #422
   be4b4:       aa0003e1        mov     x1, x0
   be4b8:       52800060        mov     w0, #0x3                        // #3
   be4bc:       97fe8bad        bl      61370 <_ZN3pst3log5PrintENS0_11log_level_tEPKciS3_PKNS0_9LogModuleES3_z@plt>
   be4c0:       b94053a0        ldr     w0, [x29, #80]
   be4c4:       140000e5        b       be858 <_ZN4hgrm5spdif31SpdifPlayerServiceDtsDecHandler12doDtsProcessEPNS0_10ParserInfoEPhjS4_+0x9d0>
   be4c8:       f9401fa0        ldr     x0, [x29, #56]
   be4cc:       3944d000        ldrb    w0, [x0, #308]
   be4d0:       52000000        eor     w0, w0, #0x1
   be4d4:       12001c00        and     w0, w0, #0xff
   be4d8:       7100001f        cmp     w0, #0x0
   be4dc:       54000400        b.eq    be55c <_ZN4hgrm5spdif31SpdifPlayerServiceDtsDecHandler12doDtsProcessEPNS0_10ParserInfoEPhjS4_+0x6d4>  // b.none
   be4e0:       f9401fa0        ldr     x0, [x29, #56]
   be4e4:       91032000        add     x0, x0, #0xc8
   be4e8:       97fea4d6        bl      67840 <_ZNSt5mutex4lockEv@plt>
   be4ec:       f9401fa0        ldr     x0, [x29, #56]
   be4f0:       b940c000        ldr     w0, [x0, #192]
   be4f4:       b90057a0        str     w0, [x29, #84]
   be4f8:       f9401fa0        ldr     x0, [x29, #56]
   be4fc:       91032000        add     x0, x0, #0xc8
   be500:       97fe9ba4        bl      65390 <_ZNSt5mutex6unlockEv@plt>
   be504:       b94057a0        ldr     w0, [x29, #84]
   be508:       7100101f        cmp     w0, #0x4
   be50c:       54000241        b.ne    be554 <_ZN4hgrm5spdif31SpdifPlayerServiceDtsDecHandler12doDtsProcessEPNS0_10ParserInfoEPhjS4_+0x6cc>  // b.any
   be510:       528000a0        mov     w0, #0x5                        // #5
   be514:       b90057a0        str     w0, [x29, #84]
   be518:       f9401fa0        ldr     x0, [x29, #56]
   be51c:       91032000        add     x0, x0, #0xc8
   be520:       97fea4c8        bl      67840 <_ZNSt5mutex4lockEv@plt>
   be524:       f9401fa0        ldr     x0, [x29, #56]
   be528:       b94057a1        ldr     w1, [x29, #84]
   be52c:       b900c001        str     w1, [x0, #192]
   be530:       f9401fa0        ldr     x0, [x29, #56]
   be534:       52800081        mov     w1, #0x4                        // #4
   be538:       b901d801        str     w1, [x0, #472]
   be53c:       f9401fa0        ldr     x0, [x29, #56]
   be540:       91032000        add     x0, x0, #0xc8
   be544:       97fe9b93        bl      65390 <_ZNSt5mutex6unlockEv@plt>
   be548:       f9401fa0        ldr     x0, [x29, #56]
   be54c:       52800021        mov     w1, #0x1                        // #1
   be550:       3904d001        strb    w1, [x0, #308]
   be554:       52800000        mov     w0, #0x0                        // #0
   be558:       140000c0        b       be858 <_ZN4hgrm5spdif31SpdifPlayerServiceDtsDecHandler12doDtsProcessEPNS0_10ParserInfoEPhjS4_+0x9d0>
   be55c:       b9404fa0        ldr     w0, [x29, #76]
   be560:       7100001f        cmp     w0, #0x0
   be564:       54001680        b.eq    be834 <_ZN4hgrm5spdif31SpdifPlayerServiceDtsDecHandler12doDtsProcessEPNS0_10ParserInfoEPhjS4_+0x9ac>  // b.none
   be568:       f9403fa0        ldr     x0, [x29, #120]
   be56c:       b9400800        ldr     w0, [x0, #8]
   be570:       b9005fa0        str     w0, [x29, #92]
   be574:       f9401fa0        ldr     x0, [x29, #56]
   be578:       b9418800        ldr     w0, [x0, #392]
   be57c:       b90063a0        str     w0, [x29, #96]
   be580:       f9401fa0        ldr     x0, [x29, #56]
   be584:       b9419c00        ldr     w0, [x0, #412]
   be588:       b90067a0        str     w0, [x29, #100]
   be58c:       f9401fa0        ldr     x0, [x29, #56]
   be590:       b941a000        ldr     w0, [x0, #416]
   be594:       b9006ba0        str     w0, [x29, #104]
   be598:       f9401fa0        ldr     x0, [x29, #56]
   be59c:       b9418400        ldr     w0, [x0, #388]
   be5a0:       b9006fa0        str     w0, [x29, #108]
   be5a4:       f9401fa0        ldr     x0, [x29, #56]
   be5a8:       3946c000        ldrb    w0, [x0, #432]
   be5ac:       7100001f        cmp     w0, #0x0
   be5b0:       54000060        b.eq    be5bc <_ZN4hgrm5spdif31SpdifPlayerServiceDtsDecHandler12doDtsProcessEPNS0_10ParserInfoEPhjS4_+0x734>  // b.none
   be5b4:       52800000        mov     w0, #0x0                        // #0
   be5b8:       14000002        b       be5c0 <_ZN4hgrm5spdif31SpdifPlayerServiceDtsDecHandler12doDtsProcessEPNS0_10ParserInfoEPhjS4_+0x738>
   be5bc:       52800020        mov     w0, #0x1                        // #1
   be5c0:       39012fa0        strb    w0, [x29, #75]
   be5c4:       39412fa5        ldrb    w5, [x29, #75]
   be5c8:       f9401fa0        ldr     x0, [x29, #56]
   be5cc:       3946c000        ldrb    w0, [x0, #432]
   be5d0:       2a0003e6        mov     w6, w0
   be5d4:       f00003c0        adrp    x0, 139000 <_ZN3pst3emxL20kExecuteOnMainThreadE>
   be5d8:       91358004        add     x4, x0, #0xd60
   be5dc:       d0000600        adrp    x0, 180000 <__frame_dummy_init_array_entry+0x48>
   be5e0:       910b2003        add     x3, x0, #0x2c8
   be5e4:       900003e0        adrp    x0, 13a000 <_ZStL19piecewise_construct+0x538>
   be5e8:       91332002        add     x2, x0, #0xcc8
   be5ec:       f00003c0        adrp    x0, 139000 <_ZN3pst3emxL20kExecuteOnMainThreadE>
   be5f0:       912be001        add     x1, x0, #0xaf8
   be5f4:       b9000bff        str     wzr, [sp, #8]
   be5f8:       52800020        mov     w0, #0x1                        // #1
   be5fc:       b90003e0        str     w0, [sp]
   be600:       2a0603e7        mov     w7, w6
   be604:       2a0503e6        mov     w6, w5
   be608:       aa0403e5        mov     x5, x4
   be60c:       aa0303e4        mov     x4, x3
   be610:       aa0203e3        mov     x3, x2
   be614:       52803822        mov     w2, #0x1c1                      // #449
   be618:       52800060        mov     w0, #0x3                        // #3
   be61c:       97fe8b55        bl      61370 <_ZN3pst3log5PrintENS0_11log_level_tEPKciS3_PKNS0_9LogModuleES3_z@plt>
                                                                                                    ## ELOG

   be620:       f9401fa0        ldr     x0, [x29, #56]
   be624:       b9412400        ldr     w0, [x0, #292]
   be628:       b9406ba1        ldr     w1, [x29, #104]
   be62c:       6b00003f        cmp     w1, w0
   be630:       54000180        b.eq    be660 <_ZN4hgrm5spdif31SpdifPlayerServiceDtsDecHandler12doDtsProcessEPNS0_10ParserInfoEPhjS4_+0x7d8>  // b.none
   be634:       f9401fa0        ldr     x0, [x29, #56]
   be638:       f9408000        ldr     x0, [x0, #256]
   be63c:       f100001f        cmp     x0, #0x0
   be640:       540000a0        b.eq    be654 <_ZN4hgrm5spdif31SpdifPlayerServiceDtsDecHandler12doDtsProcessEPNS0_10ParserInfoEPhjS4_+0x7cc>  // b.none
   be644:       f9401fa0        ldr     x0, [x29, #56]
   be648:       f9408000        ldr     x0, [x0, #256]
   be64c:       b9406ba1        ldr     w1, [x29, #104]
   be650:       97fe9524        bl      63ae0 <_ZN4hgrm5spdif22SpdifPlayerServiceCore19NotifyDtsAnalogGainEi@plt>
   be654:       f9401fa0        ldr     x0, [x29, #56]
   be658:       b9406ba1        ldr     w1, [x29, #104]
   be65c:       b9012401        str     w1, [x0, #292]
   be660:       f9401fa0        ldr     x0, [x29, #56]
   be664:       b9413001        ldr     w1, [x0, #304]
   be668:       f9401fa0        ldr     x0, [x29, #56]
   be66c:       b941a400        ldr     w0, [x0, #420]
   be670:       6b00003f        cmp     w1, w0
   be674:       54000200        b.eq    be6b4 <_ZN4hgrm5spdif31SpdifPlayerServiceDtsDecHandler12doDtsProcessEPNS0_10ParserInfoEPhjS4_+0x82c>  // b.none
   be678:       f9401fa0        ldr     x0, [x29, #56]
   be67c:       f9408000        ldr     x0, [x0, #256]
   be680:       f100001f        cmp     x0, #0x0
   be684:       54000100        b.eq    be6a4 <_ZN4hgrm5spdif31SpdifPlayerServiceDtsDecHandler12doDtsProcessEPNS0_10ParserInfoEPhjS4_+0x81c>  // b.none
   be688:       f9401fa0        ldr     x0, [x29, #56]
   be68c:       f9408002        ldr     x2, [x0, #256]
   be690:       f9401fa0        ldr     x0, [x29, #56]
   be694:       b941a400        ldr     w0, [x0, #420]
   be698:       2a0003e1        mov     w1, w0
   be69c:       aa0203e0        mov     x0, x2
   be6a0:       97fe8bdc        bl      61610 <_ZN4hgrm5spdif22SpdifPlayerServiceCore16NotifyDecOutRateEj@plt>
   be6a4:       f9401fa0        ldr     x0, [x29, #56]
   be6a8:       b941a401        ldr     w1, [x0, #420]
   be6ac:       f9401fa0        ldr     x0, [x29, #56]
   be6b0:       b9013001        str     w1, [x0, #304]
   be6b4:       f9401fa0        ldr     x0, [x29, #56]
   be6b8:       b9411400        ldr     w0, [x0, #276]
   be6bc:       b9405fa1        ldr     w1, [x29, #92]
   be6c0:       6b00003f        cmp     w1, w0
   be6c4:       540002a1        b.ne    be718 <_ZN4hgrm5spdif31SpdifPlayerServiceDtsDecHandler12doDtsProcessEPNS0_10ParserInfoEPhjS4_+0x890>  // b.any
   be6c8:       f9401fa0        ldr     x0, [x29, #56]
   be6cc:       b9411800        ldr     w0, [x0, #280]
   be6d0:       b94063a1        ldr     w1, [x29, #96]
   be6d4:       6b00003f        cmp     w1, w0
   be6d8:       54000201        b.ne    be718 <_ZN4hgrm5spdif31SpdifPlayerServiceDtsDecHandler12doDtsProcessEPNS0_10ParserInfoEPhjS4_+0x890>  // b.any
   be6dc:       f9401fa0        ldr     x0, [x29, #56]
   be6e0:       b9411c00        ldr     w0, [x0, #284]
   be6e4:       b94067a1        ldr     w1, [x29, #100]
   be6e8:       6b00003f        cmp     w1, w0
   be6ec:       54000161        b.ne    be718 <_ZN4hgrm5spdif31SpdifPlayerServiceDtsDecHandler12doDtsProcessEPNS0_10ParserInfoEPhjS4_+0x890>  // b.any
   be6f0:       f9401fa0        ldr     x0, [x29, #56]
   be6f4:       b9412000        ldr     w0, [x0, #288]
   be6f8:       b9406fa1        ldr     w1, [x29, #108]
   be6fc:       6b00003f        cmp     w1, w0
   be700:       540000c1        b.ne    be718 <_ZN4hgrm5spdif31SpdifPlayerServiceDtsDecHandler12doDtsProcessEPNS0_10ParserInfoEPhjS4_+0x890>  // b.any
   be704:       f9401fa0        ldr     x0, [x29, #56]
   be708:       3944b000        ldrb    w0, [x0, #300]
   be70c:       39412fa1        ldrb    w1, [x29, #75]
   be710:       6b00003f        cmp     w1, w0
   be714:       54000900        b.eq    be834 <_ZN4hgrm5spdif31SpdifPlayerServiceDtsDecHandler12doDtsProcessEPNS0_10ParserInfoEPhjS4_+0x9ac>  // b.none
   be718:       f9401fa0        ldr     x0, [x29, #56]
   be71c:       f9408000        ldr     x0, [x0, #256]
   be720:       f100001f        cmp     x0, #0x0
   be724:       540006a0        b.eq    be7f8 <_ZN4hgrm5spdif31SpdifPlayerServiceDtsDecHandler12doDtsProcessEPNS0_10ParserInfoEPhjS4_+0x970>  // b.none
   be728:       f9401fa0        ldr     x0, [x29, #56]
   be72c:       b9411406        ldr     w6, [x0, #276]
   be730:       f9401fa0        ldr     x0, [x29, #56]
   be734:       b9411800        ldr     w0, [x0, #280]
   be738:       f9401fa1        ldr     x1, [x29, #56]
   be73c:       b9411c21        ldr     w1, [x1, #284]
   be740:       f9401fa2        ldr     x2, [x29, #56]
   be744:       b9412042        ldr     w2, [x2, #288]
   be748:       f9401fa3        ldr     x3, [x29, #56]
   be74c:       3944b063        ldrb    w3, [x3, #300]
   be750:       2a0303e7        mov     w7, w3
   be754:       39412fa3        ldrb    w3, [x29, #75]
   be758:       f00003c4        adrp    x4, 139000 <_ZN3pst3emxL20kExecuteOnMainThreadE>
   be75c:       91370085        add     x5, x4, #0xdc0
   be760:       d0000604        adrp    x4, 180000 <__frame_dummy_init_array_entry+0x48>
   be764:       910b208a        add     x10, x4, #0x2c8
   be768:       900003e4        adrp    x4, 13a000 <_ZStL19piecewise_construct+0x538>
   be76c:       91332089        add     x9, x4, #0xcc8
   be770:       f00003c4        adrp    x4, 139000 <_ZN3pst3emxL20kExecuteOnMainThreadE>
   be774:       912be088        add     x8, x4, #0xaf8
   be778:       b9003be3        str     w3, [sp, #56]
   be77c:       b90033e7        str     w7, [sp, #48]
   be780:       b9406fa3        ldr     w3, [x29, #108]
   be784:       b9002be3        str     w3, [sp, #40]
   be788:       b90023e2        str     w2, [sp, #32]
   be78c:       b94067a2        ldr     w2, [x29, #100]
   be790:       b9001be2        str     w2, [sp, #24]
   be794:       b90013e1        str     w1, [sp, #16]
   be798:       b94063a1        ldr     w1, [x29, #96]
   be79c:       b9000be1        str     w1, [sp, #8]
   be7a0:       b90003e0        str     w0, [sp]
   be7a4:       b9405fa7        ldr     w7, [x29, #92]
   be7a8:       aa0a03e4        mov     x4, x10
   be7ac:       aa0903e3        mov     x3, x9
   be7b0:       52803ac2        mov     w2, #0x1d6                      // #470
   be7b4:       aa0803e1        mov     x1, x8
   be7b8:       52800060        mov     w0, #0x3                        // #3
   be7bc:       97fe8aed        bl      61370 <_ZN3pst3log5PrintENS0_11log_level_tEPKciS3_PKNS0_9LogModuleES3_z@plt>
   be7c0:       f9401fa0        ldr     x0, [x29, #56]
   be7c4:       f9408008        ldr     x8, [x0, #256]
   be7c8:       f9401fa0        ldr     x0, [x29, #56]
   be7cc:       91063400        add     x0, x0, #0x18d
   be7d0:       f90003e0        str     x0, [sp]
   be7d4:       52800007        mov     w7, #0x0                        // #0
   be7d8:       39412fa6        ldrb    w6, [x29, #75]
   be7dc:       52800005        mov     w5, #0x0                        // #0
   be7e0:       b94067a4        ldr     w4, [x29, #100]
   be7e4:       b94063a3        ldr     w3, [x29, #96]
   be7e8:       b9406fa2        ldr     w2, [x29, #108]
   be7ec:       b9405fa1        ldr     w1, [x29, #92]
   be7f0:       aa0803e0        mov     x0, x8
   be7f4:       97fe9dd3        bl      65f40 <_ZN4hgrm5spdif22SpdifPlayerServiceCore16NotifyUpdateInfoENS0_10FormatTypeEijjbbbPh@plt>
   be7f8:       f9401fa0        ldr     x0, [x29, #56]
   be7fc:       b9405fa1        ldr     w1, [x29, #92]
   be800:       b9011401        str     w1, [x0, #276]
   be804:       f9401fa0        ldr     x0, [x29, #56]
   be808:       b94063a1        ldr     w1, [x29, #96]
   be80c:       b9011801        str     w1, [x0, #280]
   be810:       f9401fa0        ldr     x0, [x29, #56]
   be814:       b94067a1        ldr     w1, [x29, #100]
   be818:       b9011c01        str     w1, [x0, #284]
   be81c:       f9401fa0        ldr     x0, [x29, #56]
   be820:       b9406fa1        ldr     w1, [x29, #108]
   be824:       b9012001        str     w1, [x0, #288]
   be828:       f9401fa0        ldr     x0, [x29, #56]
   be82c:       39412fa1        ldrb    w1, [x29, #75]
   be830:       3904b001        strb    w1, [x0, #300]
   be834:       b9404fa0        ldr     w0, [x29, #76]
   be838:       52800004        mov     w4, #0x0                        // #0
   be83c:       2a0003e3        mov     w3, w0
   be840:       f9400fa2        ldr     x2, [x29, #24]
   be844:       f9401ba1        ldr     x1, [x29, #48]
   be848:       f9401fa0        ldr     x0, [x29, #56]
   be84c:       97fe8cd9        bl      61bb0 <_ZN4hgrm5spdif31SpdifPlayerServiceDtsDecHandler16doDtsSendProcessEPNS0_10ParserInfoEPhjb@plt>
   be850:       b90053a0        str     w0, [x29, #80]
   be854:       b94053a0        ldr     w0, [x29, #80]
   be858:       f0000601        adrp    x1, 181000 <_ZN3pst8services19ISpdifPlayerService11AddListenerEPNS1_16IServiceListenerERKNSt7__cxx1112basic_stringIcSt11char_traitsIcESaIcEEE@@Base+0x118824>
   be85c:       f946a821        ldr     x1, [x1, #3408]
   be860:       f94047a2        ldr     x2, [x29, #136]
   be864:       f9400021        ldr     x1, [x1]
   be868:       ca010041        eor     x1, x2, x1
   be86c:       f100003f        cmp     x1, #0x0
   be870:       54000040        b.eq    be878 <_ZN4hgrm5spdif31SpdifPlayerServiceDtsDecHandler12doDtsProcessEPNS0_10ParserInfoEPhjS4_+0x9f0>  // b.none
   be874:       97fe8847        bl      60990 <__stack_chk_fail@plt>
   be878:       a9447bfd        ldp     x29, x30, [sp, #64]
   be87c:       910343ff        add     sp, sp, #0xd0
   be880:       d65f03c0        ret








0000000000000000 <_ZN4hgrm5spdif31SpdifPlayerServiceDtsDecHandler12doDtsProcessEPNS0_10ParserInfoEPhjS4_>:
   0:   d10343ff        sub     sp, sp, #0xd0
   4:   a9047bfd        stp     x29, x30, [sp, #64]
   8:   910103fd        add     x29, sp, #0x40
   c:   f9001fa0        str     x0, [x29, #56]
  10:   f9001ba1        str     x1, [x29, #48]
  14:   f90017a2        str     x2, [x29, #40]
  18:   b90027a3        str     w3, [x29, #36]
  1c:   f9000fa4        str     x4, [x29, #24]
  20:   90000000        adrp    x0, 0 <__stack_chk_guard>
  24:   f9400000        ldr     x0, [x0]
  28:   f9400001        ldr     x1, [x0]
  2c:   f90047a1        str     x1, [x29, #136]
  30:   d2800001        mov     x1, #0x0                        // #0
  34:   f9400fa0        ldr     x0, [x29, #24]
  38:   f100001f        cmp     x0, #0x0                        ## if (pOutBuffer == nullptr) {
  3c:   540002a1        b.ne    90 <_ZN4hgrm5spdif31SpdifPlayerServiceDtsDecHandler12doDtsProcessEPNS0_10ParserInfoEPhjS4_+0x90>  // b.any
  40:   90000000        adrp    x0, 0 <_ZN4hgrm5spdif31SpdifPlayerServiceDtsDecHandler12doDtsProcessEPNS0_10ParserInfoEPhjS4_>
  44:   91000004        add     x4, x0, #0x0
  48:   90000000        adrp    x0, 0 <_ZN4hgrm5spdif31SpdifPlayerServiceDtsDecHandler12doDtsProcessEPNS0_10ParserInfoEPhjS4_>
  4c:   91000003        add     x3, x0, #0x0
  50:   90000000        adrp    x0, 0 <_ZN4hgrm5spdif31SpdifPlayerServiceDtsDecHandler12doDtsProcessEPNS0_10ParserInfoEPhjS4_>
  54:   91000002        add     x2, x0, #0x0
  58:   90000000        adrp    x0, 0 <_ZN4hgrm5spdif31SpdifPlayerServiceDtsDecHandler12doDtsProcessEPNS0_10ParserInfoEPhjS4_>
  5c:   91000001        add     x1, x0, #0x0
  60:   90000000        adrp    x0, 0 <_ZN4hgrm5spdif31SpdifPlayerServiceDtsDecHandler12doDtsProcessEPNS0_10ParserInfoEPhjS4_>
  64:   91000000        add     x0, x0, #0x0
  68:   aa0403e6        mov     x6, x4
  6c:   aa0303e5        mov     x5, x3
  70:   aa0203e4        mov     x4, x2
  74:   aa0103e3        mov     x3, x1
  78:   52802862        mov     w2, #0x143                      // #323
  7c:   aa0003e1        mov     x1, x0
  80:   52800060        mov     w0, #0x3                        // #3
  84:   94000000        bl      0 <_ZN3pst3log5PrintENS0_11log_level_tEPKciS3_PKNS0_9LogModuleES3_z>
  88:   52800040        mov     w0, #0x2                        // #2
  8c:   14000251        b       9d0 <_ZN4hgrm5spdif31SpdifPlayerServiceDtsDecHandler12doDtsProcessEPNS0_10ParserInfoEPhjS4_+0x9d0>
                                                                ## }


  90:   b90053bf        str     wzr, [x29, #80]
  94:   f9401ba0        ldr     x0, [x29, #48]
  98:   9100a000        add     x0, x0, #0x28
  9c:   f9003fa0        str     x0, [x29, #120]
  a0:   b9004fbf        str     wzr, [x29, #76]                 ## uint32_t outSize=0
  a4:   f90043bf        str     xzr, [x29, #128]                ## size_t queSize = 0
  a8:   f9401fa0        ldr     x0, [x29, #56]
  ac:   91032000        add     x0, x0, #0xc8
  b0:   94000000        bl      0 <_ZN4hgrm5spdif31SpdifPlayerServiceDtsDecHandler12doDtsProcessEPNS0_10ParserInfoEPhjS4_>

  b4:   f9401fa0        ldr     x0, [x29, #56]
  b8:   b940c000        ldr     w0, [x0, #192]
  bc:   b90057a0        str     w0, [x29, #84]
  c0:   f9401fa0        ldr     x0, [x29, #56]
  c4:   91032000        add     x0, x0, #0xc8
  c8:   94000000        bl      0 <_ZN4hgrm5spdif31SpdifPlayerServiceDtsDecHandler12doDtsProcessEPNS0_10ParserInfoEPhjS4_>
  cc:   b94027a0        ldr     w0, [x29, #36]
  d0:   b9005ba0        str     w0, [x29, #88]
  d4:   b94057a0        ldr     w0, [x29, #84]
  d8:   71000c1f        cmp     w0, #0x3
  dc:   54000b80        b.eq    24c <_ZN4hgrm5spdif31SpdifPlayerServiceDtsDecHandler12doDtsProcessEPNS0_10ParserInfoEPhjS4_+0x24c>  // b.none
  e0:   7100141f        cmp     w0, #0x5
  e4:   54000b40        b.eq    24c <_ZN4hgrm5spdif31SpdifPlayerServiceDtsDecHandler12doDtsProcessEPNS0_10ParserInfoEPhjS4_+0x24c>  // b.none
  e8:   7100041f        cmp     w0, #0x1
  ec:   54002581        b.ne    59c <_ZN4hgrm5spdif31SpdifPlayerServiceDtsDecHandler12doDtsProcessEPNS0_10ParserInfoEPhjS4_+0x59c>  // b.any
  f0:   f9401fa0        ldr     x0, [x29, #56]
  f4:   91032000        add     x0, x0, #0xc8
  f8:   94000000        bl      0 <_ZN4hgrm5spdif31SpdifPlayerServiceDtsDecHandler12doDtsProcessEPNS0_10ParserInfoEPhjS4_>
  fc:   f9401fa0        ldr     x0, [x29, #56]
 100:   94000000        bl      0 <_ZN4hgrm5spdif21SpdifPlayerPacketBase9GetUnreadEv>
 104:   f90043a0        str     x0, [x29, #128]
 108:   f94043a0        ldr     x0, [x29, #128]
 10c:   f100001f        cmp     x0, #0x0
 110:   54000120        b.eq    134 <_ZN4hgrm5spdif31SpdifPlayerServiceDtsDecHandler12doDtsProcessEPNS0_10ParserInfoEPhjS4_+0x134>  // b.none
 114:   f9401fa0        ldr     x0, [x29, #56]
 118:   b941d400        ldr     w0, [x0, #468]
 11c:   f94043a1        ldr     x1, [x29, #128]
 120:   0b010001        add     w1, w0, w1
 124:   f9401fa0        ldr     x0, [x29, #56]
 128:   b901d401        str     w1, [x0, #468]
 12c:   f9401fa0        ldr     x0, [x29, #56]
 130:   94000000        bl      0 <_ZN4hgrm5spdif21SpdifPlayerPacketBase11ClearUnreadEv>
 134:   f9401fa0        ldr     x0, [x29, #56]
 138:   52800041        mov     w1, #0x2                        // #2
 13c:   b900c001        str     w1, [x0, #192]
 140:   f9401fa0        ldr     x0, [x29, #56]
 144:   91032000        add     x0, x0, #0xc8
 148:   94000000        bl      0 <_ZN4hgrm5spdif31SpdifPlayerServiceDtsDecHandler12doDtsProcessEPNS0_10ParserInfoEPhjS4_>
 14c:   f9403fa1        ldr     x1, [x29, #120]
 150:   f9401fa0        ldr     x0, [x29, #56]
 154:   94000000        bl      0 <_ZN4hgrm5spdif31SpdifPlayerServiceDtsDecHandler12doDtsProcessEPNS0_10ParserInfoEPhjS4_>
 158:   b90053a0        str     w0, [x29, #80]
 15c:   b94053a0        ldr     w0, [x29, #80]
 160:   7100001f        cmp     w0, #0x0
 164:   540005c0        b.eq    21c <_ZN4hgrm5spdif31SpdifPlayerServiceDtsDecHandler12doDtsProcessEPNS0_10ParserInfoEPhjS4_+0x21c>  // b.none
 168:   90000000        adrp    x0, 0 <_ZN4hgrm5spdif31SpdifPlayerServiceDtsDecHandler12doDtsProcessEPNS0_10ParserInfoEPhjS4_>
 16c:   91000004        add     x4, x0, #0x0
 170:   90000000        adrp    x0, 0 <_ZN4hgrm5spdif31SpdifPlayerServiceDtsDecHandler12doDtsProcessEPNS0_10ParserInfoEPhjS4_>
 174:   91000003        add     x3, x0, #0x0
 178:   90000000        adrp    x0, 0 <_ZN4hgrm5spdif31SpdifPlayerServiceDtsDecHandler12doDtsProcessEPNS0_10ParserInfoEPhjS4_>
 17c:   91000002        add     x2, x0, #0x0
 180:   90000000        adrp    x0, 0 <_ZN4hgrm5spdif31SpdifPlayerServiceDtsDecHandler12doDtsProcessEPNS0_10ParserInfoEPhjS4_>
 184:   91000001        add     x1, x0, #0x0
 188:   90000000        adrp    x0, 0 <_ZN4hgrm5spdif31SpdifPlayerServiceDtsDecHandler12doDtsProcessEPNS0_10ParserInfoEPhjS4_>
 18c:   91000000        add     x0, x0, #0x0
 190:   aa0403e6        mov     x6, x4
 194:   aa0303e5        mov     x5, x3
 198:   aa0203e4        mov     x4, x2
 19c:   aa0103e3        mov     x3, x1
 1a0:   52802b82        mov     w2, #0x15c                      // #348
 1a4:   aa0003e1        mov     x1, x0
 1a8:   52800060        mov     w0, #0x3                        // #3
 1ac:   94000000        bl      0 <_ZN3pst3log5PrintENS0_11log_level_tEPKciS3_PKNS0_9LogModuleES3_z>
 1b0:   52800001        mov     w1, #0x0                        // #0
 1b4:   f9401fa0        ldr     x0, [x29, #56]
 1b8:   94000000        bl      0 <_ZN4hgrm5spdif31SpdifPlayerServiceDtsDecHandler12doDtsProcessEPNS0_10ParserInfoEPhjS4_>
 1bc:   b90077a0        str     w0, [x29, #116]
 1c0:   b94077a0        ldr     w0, [x29, #116]
 1c4:   7100001f        cmp     w0, #0x0
 1c8:   54000260        b.eq    214 <_ZN4hgrm5spdif31SpdifPlayerServiceDtsDecHandler12doDtsProcessEPNS0_10ParserInfoEPhjS4_+0x214>  // b.none
 1cc:   90000000        adrp    x0, 0 <_ZN4hgrm5spdif31SpdifPlayerServiceDtsDecHandler12doDtsProcessEPNS0_10ParserInfoEPhjS4_>
 1d0:   91000004        add     x4, x0, #0x0
 1d4:   90000000        adrp    x0, 0 <_ZN4hgrm5spdif31SpdifPlayerServiceDtsDecHandler12doDtsProcessEPNS0_10ParserInfoEPhjS4_>
 1d8:   91000003        add     x3, x0, #0x0
 1dc:   90000000        adrp    x0, 0 <_ZN4hgrm5spdif31SpdifPlayerServiceDtsDecHandler12doDtsProcessEPNS0_10ParserInfoEPhjS4_>
 1e0:   91000002        add     x2, x0, #0x0
 1e4:   90000000        adrp    x0, 0 <_ZN4hgrm5spdif31SpdifPlayerServiceDtsDecHandler12doDtsProcessEPNS0_10ParserInfoEPhjS4_>
 1e8:   91000001        add     x1, x0, #0x0
 1ec:   90000000        adrp    x0, 0 <_ZN4hgrm5spdif31SpdifPlayerServiceDtsDecHandler12doDtsProcessEPNS0_10ParserInfoEPhjS4_>
 1f0:   91000000        add     x0, x0, #0x0
 1f4:   aa0403e6        mov     x6, x4
 1f8:   aa0303e5        mov     x5, x3
 1fc:   aa0203e4        mov     x4, x2
 200:   aa0103e3        mov     x3, x1
 204:   52802be2        mov     w2, #0x15f                      // #351
 208:   aa0003e1        mov     x1, x0
 20c:   52800060        mov     w0, #0x3                        // #3
 210:   94000000        bl      0 <_ZN3pst3log5PrintENS0_11log_level_tEPKciS3_PKNS0_9LogModuleES3_z>
 214:   b94053a0        ldr     w0, [x29, #80]
 218:   140001ee        b       9d0 <_ZN4hgrm5spdif31SpdifPlayerServiceDtsDecHandler12doDtsProcessEPNS0_10ParserInfoEPhjS4_+0x9d0>
 21c:   d503201f        nop
 220:   f9401fa0        ldr     x0, [x29, #56]
 224:   91032000        add     x0, x0, #0xc8
 228:   94000000        bl      0 <_ZN4hgrm5spdif31SpdifPlayerServiceDtsDecHandler12doDtsProcessEPNS0_10ParserInfoEPhjS4_>
 22c:   f9401fa0        ldr     x0, [x29, #56]
 230:   52800061        mov     w1, #0x3                        // #3
 234:   b900c001        str     w1, [x0, #192]
 238:   f9401fa0        ldr     x0, [x29, #56]
 23c:   91032000        add     x0, x0, #0xc8
 240:   94000000        bl      0 <_ZN4hgrm5spdif31SpdifPlayerServiceDtsDecHandler12doDtsProcessEPNS0_10ParserInfoEPhjS4_>
 244:   b94053a0        ldr     w0, [x29, #80]
 248:   140001e2        b       9d0 <_ZN4hgrm5spdif31SpdifPlayerServiceDtsDecHandler12doDtsProcessEPNS0_10ParserInfoEPhjS4_+0x9d0>
 24c:   f9401fa0        ldr     x0, [x29, #56]
 250:   9105c001        add     x1, x0, #0x170
 254:   910133a0        add     x0, x29, #0x4c
 258:   aa0103e6        mov     x6, x1
 25c:   aa0003e5        mov     x5, x0
 260:   f9400fa4        ldr     x4, [x29, #24]
 264:   b9405ba3        ldr     w3, [x29, #88]
 268:   f94017a2        ldr     x2, [x29, #40]
 26c:   f9403fa1        ldr     x1, [x29, #120]
 270:   f9401fa0        ldr     x0, [x29, #56]
 274:   94000000        bl      0 <_ZN4hgrm5spdif31SpdifPlayerServiceDtsDecHandler12doDtsProcessEPNS0_10ParserInfoEPhjS4_>
 278:   b90053a0        str     w0, [x29, #80]
 27c:   b94053a0        ldr     w0, [x29, #80]
 280:   7100001f        cmp     w0, #0x0
 284:   54001700        b.eq    564 <_ZN4hgrm5spdif31SpdifPlayerServiceDtsDecHandler12doDtsProcessEPNS0_10ParserInfoEPhjS4_+0x564>  // b.none
 288:   90000000        adrp    x0, 0 <_ZN4hgrm5spdif31SpdifPlayerServiceDtsDecHandler12doDtsProcessEPNS0_10ParserInfoEPhjS4_>
 28c:   91000004        add     x4, x0, #0x0
 290:   90000000        adrp    x0, 0 <_ZN4hgrm5spdif31SpdifPlayerServiceDtsDecHandler12doDtsProcessEPNS0_10ParserInfoEPhjS4_>
 294:   91000003        add     x3, x0, #0x0
 298:   90000000        adrp    x0, 0 <_ZN4hgrm5spdif31SpdifPlayerServiceDtsDecHandler12doDtsProcessEPNS0_10ParserInfoEPhjS4_>
 29c:   91000002        add     x2, x0, #0x0
 2a0:   90000000        adrp    x0, 0 <_ZN4hgrm5spdif31SpdifPlayerServiceDtsDecHandler12doDtsProcessEPNS0_10ParserInfoEPhjS4_>
 2a4:   91000001        add     x1, x0, #0x0
 2a8:   90000000        adrp    x0, 0 <_ZN4hgrm5spdif31SpdifPlayerServiceDtsDecHandler12doDtsProcessEPNS0_10ParserInfoEPhjS4_>
 2ac:   91000000        add     x0, x0, #0x0
 2b0:   aa0403e6        mov     x6, x4
 2b4:   aa0303e5        mov     x5, x3
 2b8:   aa0203e4        mov     x4, x2
 2bc:   aa0103e3        mov     x3, x1
 2c0:   52802d82        mov     w2, #0x16c                      // #364
 2c4:   aa0003e1        mov     x1, x0
 2c8:   52800060        mov     w0, #0x3                        // #3
 2cc:   94000000        bl      0 <_ZN3pst3log5PrintENS0_11log_level_tEPKciS3_PKNS0_9LogModuleES3_z>
 2d0:   b94053a0        ldr     w0, [x29, #80]
 2d4:   71001c1f        cmp     w0, #0x7
 2d8:   54001421        b.ne    55c <_ZN4hgrm5spdif31SpdifPlayerServiceDtsDecHandler12doDtsProcessEPNS0_10ParserInfoEPhjS4_+0x55c>  // b.any
 2dc:   39012bbf        strb    wzr, [x29, #74]
 2e0:   91012ba0        add     x0, x29, #0x4a
 2e4:   f90017a0        str     x0, [x29, #40]
 2e8:   52800024        mov     w4, #0x1                        // #1
 2ec:   b9405ba3        ldr     w3, [x29, #88]
 2f0:   f94017a2        ldr     x2, [x29, #40]
 2f4:   f9401ba1        ldr     x1, [x29, #48]
 2f8:   f9401fa0        ldr     x0, [x29, #56]
 2fc:   94000000        bl      0 <_ZN4hgrm5spdif31SpdifPlayerServiceDtsDecHandler12doDtsProcessEPNS0_10ParserInfoEPhjS4_>
 300:   b90053a0        str     w0, [x29, #80]
 304:   f90017bf        str     xzr, [x29, #40]
 308:   b94053a0        ldr     w0, [x29, #80]
 30c:   7100001f        cmp     w0, #0x0
 310:   54000260        b.eq    35c <_ZN4hgrm5spdif31SpdifPlayerServiceDtsDecHandler12doDtsProcessEPNS0_10ParserInfoEPhjS4_+0x35c>  // b.none
 314:   90000000        adrp    x0, 0 <_ZN4hgrm5spdif31SpdifPlayerServiceDtsDecHandler12doDtsProcessEPNS0_10ParserInfoEPhjS4_>
 318:   91000004        add     x4, x0, #0x0
 31c:   90000000        adrp    x0, 0 <_ZN4hgrm5spdif31SpdifPlayerServiceDtsDecHandler12doDtsProcessEPNS0_10ParserInfoEPhjS4_>
 320:   91000003        add     x3, x0, #0x0
 324:   90000000        adrp    x0, 0 <_ZN4hgrm5spdif31SpdifPlayerServiceDtsDecHandler12doDtsProcessEPNS0_10ParserInfoEPhjS4_>
 328:   91000002        add     x2, x0, #0x0
 32c:   90000000        adrp    x0, 0 <_ZN4hgrm5spdif31SpdifPlayerServiceDtsDecHandler12doDtsProcessEPNS0_10ParserInfoEPhjS4_>
 330:   91000001        add     x1, x0, #0x0
 334:   90000000        adrp    x0, 0 <_ZN4hgrm5spdif31SpdifPlayerServiceDtsDecHandler12doDtsProcessEPNS0_10ParserInfoEPhjS4_>
 338:   91000000        add     x0, x0, #0x0
 33c:   aa0403e6        mov     x6, x4
 340:   aa0303e5        mov     x5, x3
 344:   aa0203e4        mov     x4, x2
 348:   aa0103e3        mov     x3, x1
 34c:   52802e82        mov     w2, #0x174                      // #372
 350:   aa0003e1        mov     x1, x0
 354:   52800060        mov     w0, #0x3                        // #3
 358:   94000000        bl      0 <_ZN3pst3log5PrintENS0_11log_level_tEPKciS3_PKNS0_9LogModuleES3_z>
 35c:   f9401fa0        ldr     x0, [x29, #56]
 360:   52800181        mov     w1, #0xc                        // #12
 364:   b9013801        str     w1, [x0, #312]
 368:   f9401fa0        ldr     x0, [x29, #56]
 36c:   3904d01f        strb    wzr, [x0, #308]
 370:   f9401fa0        ldr     x0, [x29, #56]
 374:   91032000        add     x0, x0, #0xc8
 378:   94000000        bl      0 <_ZN4hgrm5spdif31SpdifPlayerServiceDtsDecHandler12doDtsProcessEPNS0_10ParserInfoEPhjS4_>
 37c:   f9401fa0        ldr     x0, [x29, #56]
 380:   94000000        bl      0 <_ZN4hgrm5spdif21SpdifPlayerPacketBase9GetUnreadEv>
 384:   f90043a0        str     x0, [x29, #128]
 388:   f94043a0        ldr     x0, [x29, #128]
 38c:   f100001f        cmp     x0, #0x0
 390:   54000180        b.eq    3c0 <_ZN4hgrm5spdif31SpdifPlayerServiceDtsDecHandler12doDtsProcessEPNS0_10ParserInfoEPhjS4_+0x3c0>  // b.none
 394:   b94057a0        ldr     w0, [x29, #84]
 398:   7100141f        cmp     w0, #0x5
 39c:   540000e0        b.eq    3b8 <_ZN4hgrm5spdif31SpdifPlayerServiceDtsDecHandler12doDtsProcessEPNS0_10ParserInfoEPhjS4_+0x3b8>  // b.none
 3a0:   f9401fa0        ldr     x0, [x29, #56]
 3a4:   b941d400        ldr     w0, [x0, #468]
 3a8:   f94043a1        ldr     x1, [x29, #128]
 3ac:   0b010001        add     w1, w0, w1
 3b0:   f9401fa0        ldr     x0, [x29, #56]
 3b4:   b901d401        str     w1, [x0, #468]
 3b8:   f9401fa0        ldr     x0, [x29, #56]
 3bc:   94000000        bl      0 <_ZN4hgrm5spdif21SpdifPlayerPacketBase11ClearUnreadEv>
 3c0:   f9401fa0        ldr     x0, [x29, #56]
 3c4:   52800041        mov     w1, #0x2                        // #2
 3c8:   b900c001        str     w1, [x0, #192]
 3cc:   f9401fa0        ldr     x0, [x29, #56]
 3d0:   91032000        add     x0, x0, #0xc8
 3d4:   94000000        bl      0 <_ZN4hgrm5spdif31SpdifPlayerServiceDtsDecHandler12doDtsProcessEPNS0_10ParserInfoEPhjS4_>
 3d8:   52800021        mov     w1, #0x1                        // #1
 3dc:   f9401fa0        ldr     x0, [x29, #56]
 3e0:   94000000        bl      0 <_ZN4hgrm5spdif31SpdifPlayerServiceDtsDecHandler12doDtsProcessEPNS0_10ParserInfoEPhjS4_>
 3e4:   b90053a0        str     w0, [x29, #80]
 3e8:   b94053a0        ldr     w0, [x29, #80]
 3ec:   7100001f        cmp     w0, #0x0
 3f0:   540003c0        b.eq    468 <_ZN4hgrm5spdif31SpdifPlayerServiceDtsDecHandler12doDtsProcessEPNS0_10ParserInfoEPhjS4_+0x468>  // b.none
 3f4:   90000000        adrp    x0, 0 <_ZN4hgrm5spdif31SpdifPlayerServiceDtsDecHandler12doDtsProcessEPNS0_10ParserInfoEPhjS4_>
 3f8:   91000004        add     x4, x0, #0x0
 3fc:   90000000        adrp    x0, 0 <_ZN4hgrm5spdif31SpdifPlayerServiceDtsDecHandler12doDtsProcessEPNS0_10ParserInfoEPhjS4_>
 400:   91000003        add     x3, x0, #0x0
 404:   90000000        adrp    x0, 0 <_ZN4hgrm5spdif31SpdifPlayerServiceDtsDecHandler12doDtsProcessEPNS0_10ParserInfoEPhjS4_>
 408:   91000002        add     x2, x0, #0x0
 40c:   90000000        adrp    x0, 0 <_ZN4hgrm5spdif31SpdifPlayerServiceDtsDecHandler12doDtsProcessEPNS0_10ParserInfoEPhjS4_>
 410:   91000001        add     x1, x0, #0x0
 414:   90000000        adrp    x0, 0 <_ZN4hgrm5spdif31SpdifPlayerServiceDtsDecHandler12doDtsProcessEPNS0_10ParserInfoEPhjS4_>
 418:   91000000        add     x0, x0, #0x0
 41c:   aa0403e6        mov     x6, x4
 420:   aa0303e5        mov     x5, x3
 424:   aa0203e4        mov     x4, x2
 428:   aa0103e3        mov     x3, x1
 42c:   52803082        mov     w2, #0x184                      // #388
 430:   aa0003e1        mov     x1, x0
 434:   52800060        mov     w0, #0x3                        // #3
 438:   94000000        bl      0 <_ZN3pst3log5PrintENS0_11log_level_tEPKciS3_PKNS0_9LogModuleES3_z>
 43c:   f9401fa0        ldr     x0, [x29, #56]
 440:   91032000        add     x0, x0, #0xc8
 444:   94000000        bl      0 <_ZN4hgrm5spdif31SpdifPlayerServiceDtsDecHandler12doDtsProcessEPNS0_10ParserInfoEPhjS4_>
 448:   f9401fa0        ldr     x0, [x29, #56]
 44c:   52800021        mov     w1, #0x1                        // #1
 450:   b900c001        str     w1, [x0, #192]
 454:   f9401fa0        ldr     x0, [x29, #56]
 458:   91032000        add     x0, x0, #0xc8
 45c:   94000000        bl      0 <_ZN4hgrm5spdif31SpdifPlayerServiceDtsDecHandler12doDtsProcessEPNS0_10ParserInfoEPhjS4_>
 460:   b94053a0        ldr     w0, [x29, #80]
 464:   1400015b        b       9d0 <_ZN4hgrm5spdif31SpdifPlayerServiceDtsDecHandler12doDtsProcessEPNS0_10ParserInfoEPhjS4_+0x9d0>
 468:   f9403fa1        ldr     x1, [x29, #120]
 46c:   f9401fa0        ldr     x0, [x29, #56]
 470:   94000000        bl      0 <_ZN4hgrm5spdif31SpdifPlayerServiceDtsDecHandler12doDtsProcessEPNS0_10ParserInfoEPhjS4_>
 474:   b90053a0        str     w0, [x29, #80]
 478:   b94053a0        ldr     w0, [x29, #80]
 47c:   7100001f        cmp     w0, #0x0
 480:   540005c0        b.eq    538 <_ZN4hgrm5spdif31SpdifPlayerServiceDtsDecHandler12doDtsProcessEPNS0_10ParserInfoEPhjS4_+0x538>  // b.none
 484:   90000000        adrp    x0, 0 <_ZN4hgrm5spdif31SpdifPlayerServiceDtsDecHandler12doDtsProcessEPNS0_10ParserInfoEPhjS4_>
 488:   91000004        add     x4, x0, #0x0
 48c:   90000000        adrp    x0, 0 <_ZN4hgrm5spdif31SpdifPlayerServiceDtsDecHandler12doDtsProcessEPNS0_10ParserInfoEPhjS4_>
 490:   91000003        add     x3, x0, #0x0
 494:   90000000        adrp    x0, 0 <_ZN4hgrm5spdif31SpdifPlayerServiceDtsDecHandler12doDtsProcessEPNS0_10ParserInfoEPhjS4_>
 498:   91000002        add     x2, x0, #0x0
 49c:   90000000        adrp    x0, 0 <_ZN4hgrm5spdif31SpdifPlayerServiceDtsDecHandler12doDtsProcessEPNS0_10ParserInfoEPhjS4_>
 4a0:   91000001        add     x1, x0, #0x0
 4a4:   90000000        adrp    x0, 0 <_ZN4hgrm5spdif31SpdifPlayerServiceDtsDecHandler12doDtsProcessEPNS0_10ParserInfoEPhjS4_>
 4a8:   91000000        add     x0, x0, #0x0
 4ac:   aa0403e6        mov     x6, x4
 4b0:   aa0303e5        mov     x5, x3
 4b4:   aa0203e4        mov     x4, x2
 4b8:   aa0103e3        mov     x3, x1
 4bc:   52803182        mov     w2, #0x18c                      // #396
 4c0:   aa0003e1        mov     x1, x0
 4c4:   52800060        mov     w0, #0x3                        // #3
 4c8:   94000000        bl      0 <_ZN3pst3log5PrintENS0_11log_level_tEPKciS3_PKNS0_9LogModuleES3_z>
 4cc:   52800001        mov     w1, #0x0                        // #0
 4d0:   f9401fa0        ldr     x0, [x29, #56]
 4d4:   94000000        bl      0 <_ZN4hgrm5spdif31SpdifPlayerServiceDtsDecHandler12doDtsProcessEPNS0_10ParserInfoEPhjS4_>
 4d8:   b90073a0        str     w0, [x29, #112]
 4dc:   b94073a0        ldr     w0, [x29, #112]
 4e0:   7100001f        cmp     w0, #0x0
 4e4:   54000260        b.eq    530 <_ZN4hgrm5spdif31SpdifPlayerServiceDtsDecHandler12doDtsProcessEPNS0_10ParserInfoEPhjS4_+0x530>  // b.none
 4e8:   90000000        adrp    x0, 0 <_ZN4hgrm5spdif31SpdifPlayerServiceDtsDecHandler12doDtsProcessEPNS0_10ParserInfoEPhjS4_>
 4ec:   91000004        add     x4, x0, #0x0
 4f0:   90000000        adrp    x0, 0 <_ZN4hgrm5spdif31SpdifPlayerServiceDtsDecHandler12doDtsProcessEPNS0_10ParserInfoEPhjS4_>
 4f4:   91000003        add     x3, x0, #0x0
 4f8:   90000000        adrp    x0, 0 <_ZN4hgrm5spdif31SpdifPlayerServiceDtsDecHandler12doDtsProcessEPNS0_10ParserInfoEPhjS4_>
 4fc:   91000002        add     x2, x0, #0x0
 500:   90000000        adrp    x0, 0 <_ZN4hgrm5spdif31SpdifPlayerServiceDtsDecHandler12doDtsProcessEPNS0_10ParserInfoEPhjS4_>
 504:   91000001        add     x1, x0, #0x0
 508:   90000000        adrp    x0, 0 <_ZN4hgrm5spdif31SpdifPlayerServiceDtsDecHandler12doDtsProcessEPNS0_10ParserInfoEPhjS4_>
 50c:   91000000        add     x0, x0, #0x0
 510:   aa0403e6        mov     x6, x4
 514:   aa0303e5        mov     x5, x3
 518:   aa0203e4        mov     x4, x2
 51c:   aa0103e3        mov     x3, x1
 520:   528031e2        mov     w2, #0x18f                      // #399
 524:   aa0003e1        mov     x1, x0
 528:   52800060        mov     w0, #0x3                        // #3
 52c:   94000000        bl      0 <_ZN3pst3log5PrintENS0_11log_level_tEPKciS3_PKNS0_9LogModuleES3_z>
 530:   b94053a0        ldr     w0, [x29, #80]
 534:   14000127        b       9d0 <_ZN4hgrm5spdif31SpdifPlayerServiceDtsDecHandler12doDtsProcessEPNS0_10ParserInfoEPhjS4_+0x9d0>
 538:   f9401fa0        ldr     x0, [x29, #56]
 53c:   91032000        add     x0, x0, #0xc8
 540:   94000000        bl      0 <_ZN4hgrm5spdif31SpdifPlayerServiceDtsDecHandler12doDtsProcessEPNS0_10ParserInfoEPhjS4_>
 544:   f9401fa0        ldr     x0, [x29, #56]
 548:   52800061        mov     w1, #0x3                        // #3
 54c:   b900c001        str     w1, [x0, #192]
 550:   f9401fa0        ldr     x0, [x29, #56]
 554:   91032000        add     x0, x0, #0xc8
 558:   94000000        bl      0 <_ZN4hgrm5spdif31SpdifPlayerServiceDtsDecHandler12doDtsProcessEPNS0_10ParserInfoEPhjS4_>
 55c:   b94053a0        ldr     w0, [x29, #80]
 560:   1400011c        b       9d0 <_ZN4hgrm5spdif31SpdifPlayerServiceDtsDecHandler12doDtsProcessEPNS0_10ParserInfoEPhjS4_+0x9d0>
 564:   d503201f        nop
 568:   d503201f        nop
 56c:   f9401fa0        ldr     x0, [x29, #56]
 570:   f9400000        ldr     x0, [x0]
 574:   9100e000        add     x0, x0, #0x38
 578:   f9400002        ldr     x2, [x0]
 57c:   f9401ba1        ldr     x1, [x29, #48]
 580:   f9401fa0        ldr     x0, [x29, #56]
 584:   d63f0040        blr     x2
 588:   b90053a0        str     w0, [x29, #80]
 58c:   b94053a0        ldr     w0, [x29, #80]
 590:   7100001f        cmp     w0, #0x0
 594:   54000560        b.eq    640 <_ZN4hgrm5spdif31SpdifPlayerServiceDtsDecHandler12doDtsProcessEPNS0_10ParserInfoEPhjS4_+0x640>  // b.none
 598:   14000016        b       5f0 <_ZN4hgrm5spdif31SpdifPlayerServiceDtsDecHandler12doDtsProcessEPNS0_10ParserInfoEPhjS4_+0x5f0>
 59c:   b94057a4        ldr     w4, [x29, #84]
 5a0:   90000000        adrp    x0, 0 <_ZN4hgrm5spdif31SpdifPlayerServiceDtsDecHandler12doDtsProcessEPNS0_10ParserInfoEPhjS4_>
 5a4:   91000003        add     x3, x0, #0x0
 5a8:   90000000        adrp    x0, 0 <_ZN4hgrm5spdif31SpdifPlayerServiceDtsDecHandler12doDtsProcessEPNS0_10ParserInfoEPhjS4_>
 5ac:   91000002        add     x2, x0, #0x0
 5b0:   90000000        adrp    x0, 0 <_ZN4hgrm5spdif31SpdifPlayerServiceDtsDecHandler12doDtsProcessEPNS0_10ParserInfoEPhjS4_>
 5b4:   91000001        add     x1, x0, #0x0
 5b8:   90000000        adrp    x0, 0 <_ZN4hgrm5spdif31SpdifPlayerServiceDtsDecHandler12doDtsProcessEPNS0_10ParserInfoEPhjS4_>
 5bc:   91000000        add     x0, x0, #0x0
 5c0:   2a0403e6        mov     w6, w4
 5c4:   aa0303e5        mov     x5, x3
 5c8:   aa0203e4        mov     x4, x2
 5cc:   aa0103e3        mov     x3, x1
 5d0:   52803362        mov     w2, #0x19b                      // #411
 5d4:   aa0003e1        mov     x1, x0
 5d8:   52800060        mov     w0, #0x3                        // #3
 5dc:   94000000        bl      0 <_ZN3pst3log5PrintENS0_11log_level_tEPKciS3_PKNS0_9LogModuleES3_z>
 5e0:   52800040        mov     w0, #0x2                        // #2
 5e4:   b90053a0        str     w0, [x29, #80]
 5e8:   b94053a0        ldr     w0, [x29, #80]
 5ec:   140000f9        b       9d0 <_ZN4hgrm5spdif31SpdifPlayerServiceDtsDecHandler12doDtsProcessEPNS0_10ParserInfoEPhjS4_+0x9d0>
 5f0:   90000000        adrp    x0, 0 <_ZN4hgrm5spdif31SpdifPlayerServiceDtsDecHandler12doDtsProcessEPNS0_10ParserInfoEPhjS4_>
 5f4:   91000004        add     x4, x0, #0x0
 5f8:   90000000        adrp    x0, 0 <_ZN4hgrm5spdif31SpdifPlayerServiceDtsDecHandler12doDtsProcessEPNS0_10ParserInfoEPhjS4_>
 5fc:   91000003        add     x3, x0, #0x0
 600:   90000000        adrp    x0, 0 <_ZN4hgrm5spdif31SpdifPlayerServiceDtsDecHandler12doDtsProcessEPNS0_10ParserInfoEPhjS4_>
 604:   91000002        add     x2, x0, #0x0

 608:   90000000        adrp    x0, 0 <_ZN4hgrm5spdif31SpdifPlayerServiceDtsDecHandler12doDtsProcessEPNS0_10ParserInfoEPhjS4_>
 60c:   91000001        add     x1, x0, #0x0
 610:   90000000        adrp    x0, 0 <_ZN4hgrm5spdif31SpdifPlayerServiceDtsDecHandler12doDtsProcessEPNS0_10ParserInfoEPhjS4_>
 614:   91000000        add     x0, x0, #0x0
 618:   aa0403e6        mov     x6, x4
 61c:   aa0303e5        mov     x5, x3
 620:   aa0203e4        mov     x4, x2
 624:   aa0103e3        mov     x3, x1
 628:   528034c2        mov     w2, #0x1a6                      // #422
 62c:   aa0003e1        mov     x1, x0
 630:   52800060        mov     w0, #0x3                        // #3
 634:   94000000        bl      0 <_ZN3pst3log5PrintENS0_11log_level_tEPKciS3_PKNS0_9LogModuleES3_z>
 638:   b94053a0        ldr     w0, [x29, #80]
 63c:   140000e5        b       9d0 <_ZN4hgrm5spdif31SpdifPlayerServiceDtsDecHandler12doDtsProcessEPNS0_10ParserInfoEPhjS4_+0x9d0>
 640:   f9401fa0        ldr     x0, [x29, #56]
 644:   3944d000        ldrb    w0, [x0, #308]
 648:   52000000        eor     w0, w0, #0x1
 64c:   12001c00        and     w0, w0, #0xff
 650:   7100001f        cmp     w0, #0x0
 654:   54000400        b.eq    6d4 <_ZN4hgrm5spdif31SpdifPlayerServiceDtsDecHandler12doDtsProcessEPNS0_10ParserInfoEPhjS4_+0x6d4>  // b.none
 658:   f9401fa0        ldr     x0, [x29, #56]
 65c:   91032000        add     x0, x0, #0xc8
 660:   94000000        bl      0 <_ZN4hgrm5spdif31SpdifPlayerServiceDtsDecHandler12doDtsProcessEPNS0_10ParserInfoEPhjS4_>
 664:   f9401fa0        ldr     x0, [x29, #56]
 668:   b940c000        ldr     w0, [x0, #192]
 66c:   b90057a0        str     w0, [x29, #84]
 670:   f9401fa0        ldr     x0, [x29, #56]
 674:   91032000        add     x0, x0, #0xc8
 678:   94000000        bl      0 <_ZN4hgrm5spdif31SpdifPlayerServiceDtsDecHandler12doDtsProcessEPNS0_10ParserInfoEPhjS4_>
 67c:   b94057a0        ldr     w0, [x29, #84]
 680:   7100101f        cmp     w0, #0x4
 684:   54000241        b.ne    6cc <_ZN4hgrm5spdif31SpdifPlayerServiceDtsDecHandler12doDtsProcessEPNS0_10ParserInfoEPhjS4_+0x6cc>  // b.any
 688:   528000a0        mov     w0, #0x5                        // #5
 68c:   b90057a0        str     w0, [x29, #84]
 690:   f9401fa0        ldr     x0, [x29, #56]
 694:   91032000        add     x0, x0, #0xc8
 698:   94000000        bl      0 <_ZN4hgrm5spdif31SpdifPlayerServiceDtsDecHandler12doDtsProcessEPNS0_10ParserInfoEPhjS4_>
 69c:   f9401fa0        ldr     x0, [x29, #56]
 6a0:   b94057a1        ldr     w1, [x29, #84]
 6a4:   b900c001        str     w1, [x0, #192]
 6a8:   f9401fa0        ldr     x0, [x29, #56]
 6ac:   52800081        mov     w1, #0x4                        // #4
 6b0:   b901d801        str     w1, [x0, #472]
 6b4:   f9401fa0        ldr     x0, [x29, #56]
 6b8:   91032000        add     x0, x0, #0xc8
 6bc:   94000000        bl      0 <_ZN4hgrm5spdif31SpdifPlayerServiceDtsDecHandler12doDtsProcessEPNS0_10ParserInfoEPhjS4_>
 6c0:   f9401fa0        ldr     x0, [x29, #56]
 6c4:   52800021        mov     w1, #0x1                        // #1
 6c8:   3904d001        strb    w1, [x0, #308]
 6cc:   52800000        mov     w0, #0x0                        // #0
 6d0:   140000c0        b       9d0 <_ZN4hgrm5spdif31SpdifPlayerServiceDtsDecHandler12doDtsProcessEPNS0_10ParserInfoEPhjS4_+0x9d0>
 6d4:   b9404fa0        ldr     w0, [x29, #76]
 6d8:   7100001f        cmp     w0, #0x0
 6dc:   54001680        b.eq    9ac <_ZN4hgrm5spdif31SpdifPlayerServiceDtsDecHandler12doDtsProcessEPNS0_10ParserInfoEPhjS4_+0x9ac>  // b.none
 6e0:   f9403fa0        ldr     x0, [x29, #120]
 6e4:   b9400800        ldr     w0, [x0, #8]
 6e8:   b9005fa0        str     w0, [x29, #92]
 6ec:   f9401fa0        ldr     x0, [x29, #56]
 6f0:   b9418800        ldr     w0, [x0, #392]
 6f4:   b90063a0        str     w0, [x29, #96]
 6f8:   f9401fa0        ldr     x0, [x29, #56]
 6fc:   b9419c00        ldr     w0, [x0, #412]
 700:   b90067a0        str     w0, [x29, #100]
 704:   f9401fa0        ldr     x0, [x29, #56]
 708:   b941a000        ldr     w0, [x0, #416]
 70c:   b9006ba0        str     w0, [x29, #104]
 710:   f9401fa0        ldr     x0, [x29, #56]
 714:   b9418400        ldr     w0, [x0, #388]
 718:   b9006fa0        str     w0, [x29, #108]
 71c:   f9401fa0        ldr     x0, [x29, #56]
 720:   3946c000        ldrb    w0, [x0, #432]
 724:   7100001f        cmp     w0, #0x0
 728:   54000060        b.eq    734 <_ZN4hgrm5spdif31SpdifPlayerServiceDtsDecHandler12doDtsProcessEPNS0_10ParserInfoEPhjS4_+0x734>  // b.none
 72c:   52800000        mov     w0, #0x0                        // #0
 730:   14000002        b       738 <_ZN4hgrm5spdif31SpdifPlayerServiceDtsDecHandler12doDtsProcessEPNS0_10ParserInfoEPhjS4_+0x738>
 734:   52800020        mov     w0, #0x1                        // #1
 738:   39012fa0        strb    w0, [x29, #75]
 73c:   39412fa5        ldrb    w5, [x29, #75]
 740:   f9401fa0        ldr     x0, [x29, #56]
 744:   3946c000        ldrb    w0, [x0, #432]
 748:   2a0003e6        mov     w6, w0
 74c:   90000000        adrp    x0, 0 <_ZN4hgrm5spdif31SpdifPlayerServiceDtsDecHandler12doDtsProcessEPNS0_10ParserInfoEPhjS4_>
 750:   91000004        add     x4, x0, #0x0
 754:   90000000        adrp    x0, 0 <_ZN4hgrm5spdif31SpdifPlayerServiceDtsDecHandler12doDtsProcessEPNS0_10ParserInfoEPhjS4_>
 758:   91000003        add     x3, x0, #0x0
 75c:   90000000        adrp    x0, 0 <_ZN4hgrm5spdif31SpdifPlayerServiceDtsDecHandler12doDtsProcessEPNS0_10ParserInfoEPhjS4_>
 760:   91000002        add     x2, x0, #0x0
 764:   90000000        adrp    x0, 0 <_ZN4hgrm5spdif31SpdifPlayerServiceDtsDecHandler12doDtsProcessEPNS0_10ParserInfoEPhjS4_>
 768:   91000001        add     x1, x0, #0x0
 76c:   b9000bff        str     wzr, [sp, #8]
 770:   52800020        mov     w0, #0x1                        // #1
 774:   b90003e0        str     w0, [sp]
 778:   2a0603e7        mov     w7, w6
 77c:   2a0503e6        mov     w6, w5
 780:   aa0403e5        mov     x5, x4
 784:   aa0303e4        mov     x4, x3
 788:   aa0203e3        mov     x3, x2
 78c:   52803822        mov     w2, #0x1c1                      // #449
 790:   52800060        mov     w0, #0x3                        // #3
 794:   94000000        bl      0 <_ZN3pst3log5PrintENS0_11log_level_tEPKciS3_PKNS0_9LogModuleES3_z>
 798:   f9401fa0        ldr     x0, [x29, #56]
 79c:   b9412400        ldr     w0, [x0, #292]
 7a0:   b9406ba1        ldr     w1, [x29, #104]
 7a4:   6b00003f        cmp     w1, w0
 7a8:   54000180        b.eq    7d8 <_ZN4hgrm5spdif31SpdifPlayerServiceDtsDecHandler12doDtsProcessEPNS0_10ParserInfoEPhjS4_+0x7d8>  // b.none
 7ac:   f9401fa0        ldr     x0, [x29, #56]
 7b0:   f9408000        ldr     x0, [x0, #256]
 7b4:   f100001f        cmp     x0, #0x0
 7b8:   540000a0        b.eq    7cc <_ZN4hgrm5spdif31SpdifPlayerServiceDtsDecHandler12doDtsProcessEPNS0_10ParserInfoEPhjS4_+0x7cc>  // b.none
 7bc:   f9401fa0        ldr     x0, [x29, #56]
 7c0:   f9408000        ldr     x0, [x0, #256]
 7c4:   b9406ba1        ldr     w1, [x29, #104]
 7c8:   94000000        bl      0 <_ZN4hgrm5spdif22SpdifPlayerServiceCore19NotifyDtsAnalogGainEi>
 7cc:   f9401fa0        ldr     x0, [x29, #56]
 7d0:   b9406ba1        ldr     w1, [x29, #104]
 7d4:   b9012401        str     w1, [x0, #292]
 7d8:   f9401fa0        ldr     x0, [x29, #56]
 7dc:   b9413001        ldr     w1, [x0, #304]
 7e0:   f9401fa0        ldr     x0, [x29, #56]
 7e4:   b941a400        ldr     w0, [x0, #420]
 7e8:   6b00003f        cmp     w1, w0
 7ec:   54000200        b.eq    82c <_ZN4hgrm5spdif31SpdifPlayerServiceDtsDecHandler12doDtsProcessEPNS0_10ParserInfoEPhjS4_+0x82c>  // b.none
 7f0:   f9401fa0        ldr     x0, [x29, #56]
 7f4:   f9408000        ldr     x0, [x0, #256]
 7f8:   f100001f        cmp     x0, #0x0
 7fc:   54000100        b.eq    81c <_ZN4hgrm5spdif31SpdifPlayerServiceDtsDecHandler12doDtsProcessEPNS0_10ParserInfoEPhjS4_+0x81c>  // b.none
 800:   f9401fa0        ldr     x0, [x29, #56]
 804:   f9408002        ldr     x2, [x0, #256]
 808:   f9401fa0        ldr     x0, [x29, #56]
 80c:   b941a400        ldr     w0, [x0, #420]
 810:   2a0003e1        mov     w1, w0
 814:   aa0203e0        mov     x0, x2
 818:   94000000        bl      0 <_ZN4hgrm5spdif31SpdifPlayerServiceDtsDecHandler12doDtsProcessEPNS0_10ParserInfoEPhjS4_>
 81c:   f9401fa0        ldr     x0, [x29, #56]
 820:   b941a401        ldr     w1, [x0, #420]
 824:   f9401fa0        ldr     x0, [x29, #56]
 828:   b9013001        str     w1, [x0, #304]
 82c:   f9401fa0        ldr     x0, [x29, #56]
 830:   b9411400        ldr     w0, [x0, #276]
 834:   b9405fa1        ldr     w1, [x29, #92]
 838:   6b00003f        cmp     w1, w0
 83c:   540002a1        b.ne    890 <_ZN4hgrm5spdif31SpdifPlayerServiceDtsDecHandler12doDtsProcessEPNS0_10ParserInfoEPhjS4_+0x890>  // b.any
 840:   f9401fa0        ldr     x0, [x29, #56]
 844:   b9411800        ldr     w0, [x0, #280]
 848:   b94063a1        ldr     w1, [x29, #96]
 84c:   6b00003f        cmp     w1, w0
 850:   54000201        b.ne    890 <_ZN4hgrm5spdif31SpdifPlayerServiceDtsDecHandler12doDtsProcessEPNS0_10ParserInfoEPhjS4_+0x890>  // b.any
 854:   f9401fa0        ldr     x0, [x29, #56]
 858:   b9411c00        ldr     w0, [x0, #284]
 85c:   b94067a1        ldr     w1, [x29, #100]
 860:   6b00003f        cmp     w1, w0
 864:   54000161        b.ne    890 <_ZN4hgrm5spdif31SpdifPlayerServiceDtsDecHandler12doDtsProcessEPNS0_10ParserInfoEPhjS4_+0x890>  // b.any
 868:   f9401fa0        ldr     x0, [x29, #56]
 86c:   b9412000        ldr     w0, [x0, #288]
 870:   b9406fa1        ldr     w1, [x29, #108]
 874:   6b00003f        cmp     w1, w0
 878:   540000c1        b.ne    890 <_ZN4hgrm5spdif31SpdifPlayerServiceDtsDecHandler12doDtsProcessEPNS0_10ParserInfoEPhjS4_+0x890>  // b.any
 87c:   f9401fa0        ldr     x0, [x29, #56]
 880:   3944b000        ldrb    w0, [x0, #300]
 884:   39412fa1        ldrb    w1, [x29, #75]
 888:   6b00003f        cmp     w1, w0
 88c:   54000900        b.eq    9ac <_ZN4hgrm5spdif31SpdifPlayerServiceDtsDecHandler12doDtsProcessEPNS0_10ParserInfoEPhjS4_+0x9ac>  // b.none
 890:   f9401fa0        ldr     x0, [x29, #56]
 894:   f9408000        ldr     x0, [x0, #256]
 898:   f100001f        cmp     x0, #0x0
 89c:   540006a0        b.eq    970 <_ZN4hgrm5spdif31SpdifPlayerServiceDtsDecHandler12doDtsProcessEPNS0_10ParserInfoEPhjS4_+0x970>  // b.none
 8a0:   f9401fa0        ldr     x0, [x29, #56]
 8a4:   b9411406        ldr     w6, [x0, #276]
 8a8:   f9401fa0        ldr     x0, [x29, #56]
 8ac:   b9411800        ldr     w0, [x0, #280]
 8b0:   f9401fa1        ldr     x1, [x29, #56]
 8b4:   b9411c21        ldr     w1, [x1, #284]
 8b8:   f9401fa2        ldr     x2, [x29, #56]
 8bc:   b9412042        ldr     w2, [x2, #288]
 8c0:   f9401fa3        ldr     x3, [x29, #56]
 8c4:   3944b063        ldrb    w3, [x3, #300]
 8c8:   2a0303e7        mov     w7, w3
 8cc:   39412fa3        ldrb    w3, [x29, #75]
 8d0:   90000004        adrp    x4, 0 <_ZN4hgrm5spdif31SpdifPlayerServiceDtsDecHandler12doDtsProcessEPNS0_10ParserInfoEPhjS4_>
 8d4:   91000085        add     x5, x4, #0x0
 8d8:   90000004        adrp    x4, 0 <_ZN4hgrm5spdif31SpdifPlayerServiceDtsDecHandler12doDtsProcessEPNS0_10ParserInfoEPhjS4_>
 8dc:   9100008a        add     x10, x4, #0x0
 8e0:   90000004        adrp    x4, 0 <_ZN4hgrm5spdif31SpdifPlayerServiceDtsDecHandler12doDtsProcessEPNS0_10ParserInfoEPhjS4_>
 8e4:   91000089        add     x9, x4, #0x0
 8e8:   90000004        adrp    x4, 0 <_ZN4hgrm5spdif31SpdifPlayerServiceDtsDecHandler12doDtsProcessEPNS0_10ParserInfoEPhjS4_>
 8ec:   91000088        add     x8, x4, #0x0
 8f0:   b9003be3        str     w3, [sp, #56]
 8f4:   b90033e7        str     w7, [sp, #48]
 8f8:   b9406fa3        ldr     w3, [x29, #108]
 8fc:   b9002be3        str     w3, [sp, #40]
 900:   b90023e2        str     w2, [sp, #32]
 904:   b94067a2        ldr     w2, [x29, #100]
 908:   b9001be2        str     w2, [sp, #24]
 90c:   b90013e1        str     w1, [sp, #16]
 910:   b94063a1        ldr     w1, [x29, #96]
 914:   b9000be1        str     w1, [sp, #8]
 918:   b90003e0        str     w0, [sp]
 91c:   b9405fa7        ldr     w7, [x29, #92]
 920:   aa0a03e4        mov     x4, x10
 924:   aa0903e3        mov     x3, x9
 928:   52803ac2        mov     w2, #0x1d6                      // #470
 92c:   aa0803e1        mov     x1, x8
 930:   52800060        mov     w0, #0x3                        // #3
 934:   94000000        bl      0 <_ZN3pst3log5PrintENS0_11log_level_tEPKciS3_PKNS0_9LogModuleES3_z>
 938:   f9401fa0        ldr     x0, [x29, #56]
 93c:   f9408008        ldr     x8, [x0, #256]
 940:   f9401fa0        ldr     x0, [x29, #56]
 944:   91063400        add     x0, x0, #0x18d
 948:   f90003e0        str     x0, [sp]
 94c:   52800007        mov     w7, #0x0                        // #0
 950:   39412fa6        ldrb    w6, [x29, #75]
 954:   52800005        mov     w5, #0x0                        // #0
 958:   b94067a4        ldr     w4, [x29, #100]
 95c:   b94063a3        ldr     w3, [x29, #96]
 960:   b9406fa2        ldr     w2, [x29, #108]
 964:   b9405fa1        ldr     w1, [x29, #92]
 968:   aa0803e0        mov     x0, x8
 96c:   94000000        bl      0 <_ZN4hgrm5spdif22SpdifPlayerServiceCore16NotifyUpdateInfoENS0_10FormatTypeEijjbbbPh>
 970:   f9401fa0        ldr     x0, [x29, #56]
 974:   b9405fa1        ldr     w1, [x29, #92]
 978:   b9011401        str     w1, [x0, #276]
 97c:   f9401fa0        ldr     x0, [x29, #56]
 980:   b94063a1        ldr     w1, [x29, #96]
 984:   b9011801        str     w1, [x0, #280]
 988:   f9401fa0        ldr     x0, [x29, #56]
 98c:   b94067a1        ldr     w1, [x29, #100]
 990:   b9011c01        str     w1, [x0, #284]
 994:   f9401fa0        ldr     x0, [x29, #56]
 998:   b9406fa1        ldr     w1, [x29, #108]
 99c:   b9012001        str     w1, [x0, #288]
 9a0:   f9401fa0        ldr     x0, [x29, #56]
 9a4:   39412fa1        ldrb    w1, [x29, #75]
 9a8:   3904b001        strb    w1, [x0, #300]
 9ac:   b9404fa0        ldr     w0, [x29, #76]
 9b0:   52800004        mov     w4, #0x0                        // #0
 9b4:   2a0003e3        mov     w3, w0
 9b8:   f9400fa2        ldr     x2, [x29, #24]
 9bc:   f9401ba1        ldr     x1, [x29, #48]
 9c0:   f9401fa0        ldr     x0, [x29, #56]
 9c4:   94000000        bl      0 <_ZN4hgrm5spdif31SpdifPlayerServiceDtsDecHandler12doDtsProcessEPNS0_10ParserInfoEPhjS4_>
 9c8:   b90053a0        str     w0, [x29, #80]
 9cc:   b94053a0        ldr     w0, [x29, #80]
 9d0:   90000001        adrp    x1, 0 <__stack_chk_guard>
 9d4:   f9400021        ldr     x1, [x1]
 9d8:   f94047a2        ldr     x2, [x29, #136]
 9dc:   f9400021        ldr     x1, [x1]
 9e0:   ca010041        eor     x1, x2, x1
 9e4:   f100003f        cmp     x1, #0x0
 9e8:   54000040        b.eq    9f0 <_ZN4hgrm5spdif31SpdifPlayerServiceDtsDecHandler12doDtsProcessEPNS0_10ParserInfoEPhjS4_+0x9f0>  // b.none
 9ec:   94000000        bl      0 <__stack_chk_fail>
 9f0:   a9447bfd        ldp     x29, x30, [sp, #64]
 9f4:   910343ff        add     sp, sp, #0xd0
 9f8:   d65f03c0        ret







* spdif memory 関係

** debug
10-22 14:58:10.096 (hagodaemon)( 4476): [E| 4476|7f80b77130|SPDIF|SpdifPlayerServiceDtsDecHandler.cc:449|hgrm::spdif::Result hgrm::spdif::SpdifPlayerServiceDtsDecHandler::doDtsProcess(hgrm::spdif::ParserInfo*, uint8_t*, uint32_t, uint8_t*)] Error! *** [spdifdebug] isUpmixer: 0 dtsOutInfo_.is_direct_mode: 184 ***

0-22 15:00:55.806 (hagodaemon)( 4513): [E| 4513|7f94c28130|SPDIF|SpdifPlayerServiceDtsDecHandler.cc:449|hgrm::spdif::Result hgrm::spdif::SpdifPlayerServiceDtsDecHandler::doDtsProcess(hgrm::spdif::ParserInfo*, uint8_t*, uint32_t, uint8_t*)] Error! *** [spdifdebug] isUpmixer: 0 dtsOutInfo_.is_direct_mode: 184 true: 1 false: 0 ***


** release
0-22 15:05:05.975 (hagodaemon)( 4418): [E| 4418|7f6ffff130|SPDIF|SpdifPlayerServiceDtsDecHandler.cc:449|hgrm::spdif::Result hgrm::spdif::SpdifPlayerServiceDtsDecHandler::doDtsProcess(hgrm::spdif::ParserInfo*, uint8_t*, uint32_t, uint8_t*)] Error! *** [spdifdebug] isUpmixer: 33 dtsOutInfo_.is_direct_mode: 32 ***

0-22 14:57:03.624 (hagodaemon)( 4468): [E| 4468|7f94ef8130|SPDIF|SpdifPlayerServiceDtsDecHandler.cc:449|hgrm::spdif::Result hgrm::spdif::SpdifPlayerServiceDtsDecHandler::doDtsProcess(hgrm::spdif::ParserInfo*, uint8_t*, uint32_t, uint8_t*)] Error! *** [spdifdebug] isUpmixer: 33 dtsOutInfo_.is_direct_mode: 32 true: 1 false: 0 ***






-*- mode: grep; default-directory: "~/workspace.tamon/hgrm/master/hagoromo/services/spdifplayerservice/" -*-
Grep started at Wed Nov  4 21:50:21

find . -type f -exec grep --color -nH -e memset {} +
./sample/Spdifapp/spdifapp.cc:548:  memset(speakerPresence, 0, sizeof(speakerPresence));
./sample/Spdifapp/spdifapp.cc:805:  memset(speakerPresence, 0, sizeof(speakerPresence));
./src/g5/SpdifPlayerServiceLpcmHandler.cc:223:    pst::base::memset(pOutBuffer, 0, inDataSize);
./src/g5/SpdifPlayerServiceDtsDecHandler.cc:925:  pst::base::memset(pOutInfo->outChInfo.ch_order, 0,
./src/g5/SpdifPlayerServiceAacDecHandler.cc:1101:  pst::base::memset(config.reserved, 0, sizeof(config.reserved));
./src/g5/SpdifPlayerServiceFormatSearch.cc:128:  // pst::base::memset(search_buf_, 0, kSearchBufSize);
./src/g5/SpdifPlayerServiceFormatSearch.cc:315:      pst::base::memset(&search_buf_[buf_write_pos_],
./src/g5/SpdifPlayerServiceCore.cc:1811:    pst::base::memset(inChannelInfo_.ch_order, 0,
./src/g5/SpdifPlayerServiceWriter.cc:157:  pst::base::memset(buffer_, 0, kWriterBufferSize);
./src/g5/SpdifPlayerServiceParser.cc:1577:      pst::base::memset(pBuf, 0, searched_size);
./src/g5/SpdifPlayerServiceDolbyDecHandler.cc:1126:  pst::base::memset(layout_, 0, sizeof(uint32)*UA_CHANNEL_MAX);
./src/g5/SpdifPlayerAudioBuffer.h:59:  void InitBuffer(uint8_t data = 0x00) { memset(p_buffer_, data, buf_size_); }
./src/g5/SpdifPlayerExhal.cc:21:  pst::base::memset(&trackenv_, 0, sizeof(trackenv_));
./src/g5/SpdifPlayerAudioPacket.h:205:    memset(&audio_info, 0, sizeof(audio_info));
./src/g5/SpdifPlayerAudioPacket.h:226:    memset(&audio_info, 0, sizeof(audio_info));
./src/g5/SpdifPlayerAudioPacket.h:227:    memset(&dynamic_info, 0, sizeof(dynamic_info));
./src/g5/SpdifPlayerAudioPacket.h:248:    memset(&in_audio_info, 0, sizeof(in_audio_info));
./src/g5/SpdifPlayerAudioPacket.h:249:    memset(&out_audio_info, 0, sizeof(out_audio_info));
./src/g5/SpdifPlayerAudioPacket.h:250:    memset(&dynamic_info, 0, sizeof(dynamic_info));
./src/g5/SpdifPlayerAudioPacket.h:337:  void InitBuffer(uint8_t data = 0x00) { memset(p_buffer_, data, buf_size_); }
./src/SpdifPlayerService.cc:39:  memset(szXmlFileName_, 0, sizeof(szXmlFileName_));
./src/SpdifPlayerService.cc:40:  memset(szEndPointName_, 0, sizeof(szEndPointName_));
./src/g4/SpdifPlayerServiceCoreBAR4.cc:1741:    pst::base::memset(inChannelInfo_.ch_order, 0,
./src/g4/SpdifPlayerServiceFormatSearchBAR4.cc:163:  // pst::base::memset(search_buf_, 0, kSearchBufSize);
./src/g4/SpdifPlayerServiceFormatSearchBAR4.cc:350:      pst::base::memset(&search_buf_[buf_write_pos_],
./src/g4/SpdifPlayerServiceWriterBAR4.cc:154:  pst::base::memset(buffer_, 0, kWriteBufSize);
./src/g4/SpdifPlayerServiceFormatSearch.cc:33:  // pst::base::memset(search_buf_, 0, kSearchBufSize);
./src/g4/SpdifPlayerServiceFormatSearch.cc:56:  // pst::base::memset(search_buf_, 0, kSearchBufSize);
./src/g4/SpdifPlayerServiceDtsDecBAR.cc:940:  memset(chInfo.ch_order, 0, static_cast<uint8_t>(MultiChElement::kMax));
./src/g4/SpdifPlayerServiceCore.cc:342:            pst::base::memset(buf.get(), 0, buf_size);
./src/g4/SpdifPlayerServiceCore.cc:398:        pst::base::memset(buf.get(), 0, buf_size);
./src/g4/SpdifPlayerServiceCore.cc:439:      pst::base::memset(buf.get(), 0, buf_size);
./src/g4/SpdifPlayerServiceCore.cc:496:        pst::base::memset(pBuf, 0, WrittenSize);
./src/g4/SpdifPlayerServiceCore.cc:842:    pst::base::memset(decodeBuf_, 0, kDecodeBufSize);
./src/g4/SpdifPlayerServiceCore.cc:856:      pst::base::memset(decodeBuf_, 0, writtenSize);
./src/g4/SpdifPlayerServiceCore.cc:901:    pst::base::memset(decodeBuf_, 0, kDecodeBufSize);
./src/g4/SpdifPlayerServiceCore.cc:1322:  pst::base::memset(config.reserved, 0, sizeof(config.reserved));
./src/g4/SpdifPlayerServiceCore.cc:1360:  pst::base::memset(FrameBuf.get(), 0, kDecodeBufSize);
./src/g4/SpdifPlayerServiceCore.cc:1815:  memset(chInfo.ch_order, 0, static_cast<uint8_t>(MultiChElement::kMax));
./src/g4/SpdifPlayerServiceFormatSearchBAR.cc:37:  // pst::base::memset(search_buf_, 0, kSearchBufSize);
./src/g4/SpdifPlayerServiceFormatSearchBAR.cc:163:  // pst::base::memset(search_buf_, 0, kSearchBufSize);
./src/g4/SpdifPlayerServiceFormatSearchBAR.cc:350:      pst::base::memset(&search_buf_[buf_write_pos_],
./src/g4/SpdifPlayerServiceFormatSearchBAR.cc:461:        pst::base::memset(&search_buf_[buf_write_pos_],
./src/g4/SpdifPlayerServiceFormatSearchBAR.cc:997:        pst::base::memset(&search_buf_[buf_write_pos_],
./src/g4/SpdifPlayerServiceParserBAR4.cc:1401:      pst::base::memset(pBuf, 0, searched_size);
./src/g4/SpdifPlayerServiceReader.cc:180:  pst::base::memset(buffer_, 0, kReadBufSize);
./src/g4/SpdifPlayerServiceWriter.cc:215:  pst::base::memset(buffer_, 0, kWriteBufSize);
./src/g4/SpdifPlayerServiceLpcmHandlerBAR4.cc:240:    pst::base::memset(pOutData, 0, inDataSize);
./src/g4/SpdifPlayerServiceCoreBAR.cc:379:    memset(chInfo.ch_order, 0, static_cast<uint8_t>(MultiChElement::kMax));
./src/g4/SpdifPlayerServiceCoreBAR.cc:490:      memset(chInfo_.ch_order, 0, static_cast<uint8_t>(MultiChElement::kMax));
./src/g4/SpdifPlayerServiceCoreBAR.cc:936:            pst::base::memset(buf.get(), 0, buf_size);
./src/g4/SpdifPlayerServiceCoreBAR.cc:1006:        pst::base::memset(buf.get(), 0, buf_size);
./src/g4/SpdifPlayerServiceCoreBAR.cc:1052:      pst::base::memset(buf.get(), 0, buf_size);
./src/g4/SpdifPlayerServiceCoreBAR.cc:3953:    pst::base::memset(decodeBuf_, 0, kDecodeBufSize);
./src/g4/SpdifPlayerServiceCoreBAR.cc:3966:      pst::base::memset(decodeBuf_, 0, kDecodeBufSize);
./src/g4/SpdifPlayerServiceCoreBAR.cc:3992:      pst::base::memset(decodeBuf_, 0, writtenSize);
./src/g4/SpdifPlayerServiceCoreBAR.cc:4048:    pst::base::memset(decodeBuf_, 0, kDecodeBufSize);
./src/g4/SpdifPlayerServiceCoreBAR.cc:4057:      pst::base::memset(decodeBuf_, 0, kDecodeBufSize);
./src/g4/SpdifPlayerServiceCoreBAR.cc:4739:  pst::base::memset(config.reserved, 0, sizeof(config.reserved));
./src/g4/SpdifPlayerServiceCoreBAR.cc:4777:  pst::base::memset(FrameBuf.get(), 0, kDecodeBufSize);
./src/g4/SpdifPlayerServiceAacDecHandlerBAR4.cc:643:  pst::base::memset(FrameBuf.get(), 0, kDecodeBufSize);
./src/g4/SpdifPlayerServiceAacDecHandlerBAR4.cc:1115:  pst::base::memset(config.reserved, 0, sizeof(config.reserved));
./src/g4/SpdifPlayerExhal.cc:24:  pst::base::memset(&trackenv_, 0, sizeof(trackenv_));
./src/g4/SpdifPlayerPacketBaseBAR4.h:359:    memset(&audio_info, 0, sizeof(audio_info));
./src/g4/SpdifPlayerPacketBaseBAR4.h:379:    memset(&audio_info, 0, sizeof(audio_info));
./src/g4/SpdifPlayerPacketBaseBAR4.h:380:    memset(&dynamic_info, 0, sizeof(dynamic_info));
./src/g4/SpdifPlayerPacketBaseBAR4.h:401:    memset(&in_audio_info, 0, sizeof(in_audio_info));
./src/g4/SpdifPlayerPacketBaseBAR4.h:402:    memset(&out_audio_info, 0, sizeof(out_audio_info));
./src/g4/SpdifPlayerPacketBaseBAR4.h:403:    memset(&dynamic_info, 0, sizeof(dynamic_info));
./src/g4/SpdifPlayerServiceDtsDecHandlerBAR4.cc:940:  pst::base::memset(pOutInfo->outChInfo.ch_order, 0,




---




2598945bb470627eb7c56ca76dcc4ba936fddb90 ng

---------------

* howm の取扱
** long span の目標
** 短期の backlog (2week?)
に分割する.

long span -> backlog の分解のフローをどうするかやる必要がある.
backlog に全部いれて, 2week(todo) 分表示されるようなイメージではどうか?

backlog -> todo および todo の残は 2week 毎に整理する.
long span の目標との間の整合は 1month? で整合させる でどうか


------------------------

 delete mode 100644 a
 delete mode 100755 make_dotfiles_to_user_environment.sh
 delete mode 100644 script/crontab
 delete mode 100644 script/functions.sh
 delete mode 100755 script/make_daily_howm_todo.sh
 delete mode 100644 script/make_howm_todo.sh
 delete mode 100755 script/make_weekly_howm_blog.sh
 delete mode 100755 script/make_weekly_howm_todo.sh
 delete mode 100755 script/sony.habb/build_ebisu.sh
 delete mode 100755 script/sony.habb/build_ebisu_hagoromo_only.sh
 delete mode 100644 script/sony.habb/build_hagodaemon.sh
 delete mode 100755 script/sony.habb/build_jailhouse.sh
 delete mode 100755 script/sony.habb/build_jailhouseservice.sh
 delete mode 100755 script/sony.habb/build_lk.sh
 delete mode 100755 script/sony.habb/get_difflist_for_release_note.sh
 delete mode 100755 script/sony.habb/install_ebisu.sh
 delete mode 100755 script/sony.habb/install_ebisu_hagoromo_only.sh
 delete mode 100755 script/sony.habb/install_lk.sh
 delete mode 100644 script/sony.habb/make_build_env.sh
 delete mode 100755 script/sony.habb/make_daily_howm_todo.sh
 delete mode 100755 script/sony.habb/make_ebisu_master_branch.sh
 delete mode 100755 script/sony.habb/make_ebisu_master_branch_without_git05.sh
 delete mode 100755 script/sony.habb/make_ebisu_repo_init.sh
 delete mode 100755 script/sony.habb/make_ebisu_repo_init_without_git05.sh
 delete mode 100755 script/sony.habb/make_master_branch.sh
 delete mode 100755 script/sony.habb/make_repo_init.sh
 delete mode 100755 script/sony.habb/setup_mrmc.sh
 delete mode 100644 script/sony.habb/update_rtags.sh
 delete mode 100755 script/sync_dotfiles.sh
 delete mode 100755 script/sync_howm.sh
 delete mode 100755 sync


* bash -> zsh にして history も全同期はありか?

* 同期させない
.ICEauthority
.Xauthority
.ansible/
.audacity-data/
.bash_history
.cabal/
.compiz/

* 同期させる (未)
.Xdefaults
.Xmodmap
.bash_logout
.bashrc_lela

* 同期させる (済み)
.Xresources -> /home/waka/dotfiles/Xresources
.bash_aliases -> dotfiles/bash_aliases
.bash_profile -> /home/waka/dotfiles/bash_profile
.bashrc -> /home/waka/dotfiles/bashrc

* 不明
.android/
.bowerrc
.cache/
.cargo/
.ccache/


drwx------  36 waka waka     4096  5月 21 17:22 .config/
drwx------   3 waka waka     4096 10月  1  2019 .dbus/
-rw-r--r--   1 waka waka       25  5月 18 16:32 .dmrc
lrwxrwxrwx   1 waka waka       28 10月  1  2019 .emacs.d -> /home/waka/dotfiles/emacs.d//
drwxrwxr-x   2 waka waka     4096 12月 10 16:26 .emacs_desktop/
drwx------   2 waka waka     4096  5月 18 19:02 .gconf/
drwxrwxr-x   4 waka waka     4096 11月  5  2019 .gem/
drwxrwxr-x   3 waka waka     4096 10月 23  2019 .ghc/
drwxr-xr-x  24 waka waka     4096  5月 16 17:36 .gimp-2.8/
-rw-rw-r--   1 waka waka      346  4月 11 19:13 .gitconfig
-rw-rw-r--   1 waka waka      432  4月  2 13:44 .gitconfig.izumo
drwxrwxr-x   4 waka waka     4096  2月  6 21:13 .gitkraken/
drwx------   3 waka waka     4096 10月  1  2019 .gnome/
drwx------   3 waka waka     4096 11月  8  2019 .gnome2/
drwx------   2 waka waka     4096 11月  8  2019 .gnome2_private/
-rw-rw-r--   1 waka waka       51  5月 18 13:34 .gnomerc
drwx------   4 waka waka     4096  5月 18 16:32 .gnupg/
-rw-rw-r--   1 waka waka     1185  5月 21 15:26 .howm-history
-rw-rw-r--   1 waka waka     1185  5月 17 00:36 .howm-history~
-rw-rw-r--   1 waka waka      317  5月  1 11:53 .howm-keys
-rw-rw-r--   1 waka waka      314  4月  9 15:14 .howm-keys~
drwxrwxr-x   5 waka waka     4096  5月  8 16:04 .java/
-rw-------   1 waka waka      767  5月 21 15:03 .lesshst
drwx------   3 waka waka     4096 10月  1  2019 .local/
drwx------   2 waka waka     4096 10月  1  2019 .mozc/
drwx------   5 waka waka     4096 10月  1  2019 .mozilla/
drwxrwxr-x   2 waka waka     4096 11月  5  2019 .narousetting/
drwxrwxr-x 699 waka waka    20480  5月 11 17:11 .npm/
drwx------   3 waka waka     4096 10月  1  2019 .pki/
drwx------   2 waka waka     4096 10月  1  2019 .presage/
-rw-r--r--   1 waka waka      655 10月  1  2019 .profile
-rw-------   1 waka waka        0  5月 22 00:33 .python-history
drwx------   2 waka waka     4096  2月 28 14:44 .remmina/
-rw-rw-r--   1 waka waka      212  4月 14 15:26 .repo_.gitconfig.json
drwxrwxr-x   3 waka waka     4096 10月  7  2019 .repoconfig/
-rw-------   1 waka waka     1024 10月  2  2019 .rnd
drwxrwxr-x  25 waka waka     4096 11月  5  2019 .rvm/
lrwxrwxrwx   1 waka waka       28 10月  1  2019 .screenrc -> /home/waka/dotfiles/screenrc
-rw-rw-r--   1 waka waka       74  4月 17 11:49 .selected_editor
-rw-------   1 waka waka        0 10月  1  2019 .skk-jisyo.lock
-rw-------   1 waka waka    23774  5月 21 21:36 .skk-uim-jisyo
-rw-------   1 waka waka        0 10月  1  2019 .skk-uim-jisyo.lock
drwx------   2 waka waka     4096  4月 11 19:12 .ssh/
-rw-r--r--   1 waka waka        0 10月  1  2019 .sudo_as_admin_successful
drwxrwxr-x   3 waka waka     4096 10月  2  2019 .synergy/
-rw-r--r--   1 waka waka      405 10月  2  2019 .synergy.conf
drwx------   3 waka waka     4096  4月 22 11:55 .thumbnails/
lrwxrwxrwx   1 waka waka       15 10月  7  2019 .uim.d -> dotfiles/uim.d//
drwx------   3 waka waka     4096 10月  1  2019 .uim.d.back/
drwx------   2 waka waka     4096  5月 13 14:20 .vnc/
drwxrwxr-x   3 waka waka     4096 11月 21 14:13 .vscode/
-rw-rw-r--   1 waka waka      947  5月 22 00:12 .wget-hsts
-rw-rw-r--   1 waka waka      130 10月  1  2019 .xinputrc
lrwxrwxrwx   1 waka waka       35 10月  1  2019 .xmobarrc -> /home/waka/dotfiles/xmonad/xmobarrc
lrwxrwxrwx   1 waka waka       26 10月  1  2019 .xmonad -> /home/waka/dotfiles/xmonad/
lrwxrwxrwx   1 waka waka       28 10月  1  2019 .xprofile -> /home/waka/dotfiles/xprofile
-rw-rw-r--   1 waka waka     8095 10月  3  2019 .xscreensaver
-rwxr-xr-x   1 waka waka       51  5月  8 20:21 .xsession*
-rw-------   1 waka waka     1060  5月 21 18:27 .xsession-errors
-rw-------   1 waka waka     2119  5月 18 18:03 .xsession-errors.old



-----
proxy
proxy.toshiba.co.jp:8080

pac
http://pac.tjsys.co.jp/proxy.pac

dns
133.199.160.67
133.199.91.10

*.tjsys.co.jp


---
sony proxy export list

system/proxy ignore-hosts: 'www.tool.sony.biz', 'www2.tool.sony.biz', 'cas-web05.scas.sony.co.jp', 'cas-web04.scas.sony.co.jp', 'localhost', '127.0.0.0/8', '::1'


sony
jira: https://www.tool.sony.biz/jira3/browse/DEPFIS-13565
conflu: https://www.tool.sony.biz/confluence/pages/viewpage.action?pageId=1667542749
git: ssh://github.com/route384/hgrm.services.soundpostcontrolservice

slack: route384.slack.com


----


ok case / eth0 単体 (wimax なし)

lela:~ $ netstat -rn
Kernel IP routing table
Destination     Gateway         Genmask         Flags   MSS Window  irtt Iface
0.0.0.0         157.79.240.1    0.0.0.0         UG        0 0          0 enp0s31f6
1.1.1.1         0.0.0.0         255.255.255.255 UH        0 0          0 tun0
133.199.91.10   157.79.240.1    255.255.255.255 UGH       0 0          0 enp0s31f6
133.199.160.67  157.79.240.1    255.255.255.255 UGH       0 0          0 enp0s31f6
133.199.251.110 157.79.240.1    255.255.255.255 UGH       0 0          0 enp0s31f6
146.215.9.102   1.1.1.1         255.255.255.255 UGH       0 0          0 tun0
146.215.9.106   1.1.1.1         255.255.255.255 UGH       0 0          0 tun0
157.79.240.0    0.0.0.0         255.255.255.0   U         0 0          0 enp0s31f6
157.79.240.1    0.0.0.0         255.255.255.255 UH        0 0          0 enp0s31f6
169.254.0.0     0.0.0.0         255.255.0.0     U         0 0          0 enp0s31f6
192.168.100.1   157.79.240.1    255.255.255.255 UGH       0 0          0 enp0s31f6
192.168.231.0   1.1.1.1         255.255.255.0   UG        0 0          0 tun0
192.168.231.160 1.1.1.1         255.255.255.255 UGH       0 0          0 tun0
192.168.231.161 1.1.1.1         255.255.255.255 UGH       0 0          0 tun0
192.168.231.162 1.1.1.1         255.255.255.255 UGH       0 0          0 tun0
192.168.231.163 1.1.1.1         255.255.255.255 UGH       0 0          0 tun0
192.168.231.228 1.1.1.1         255.255.255.255 UGH       0 0          0 tun0
192.168.231.233 1.1.1.1         255.255.255.255 UGH       0 0          0 tun0
